Component: ARM Compiler 5.06 update 5 (build 528) Tool: armlink [4d35e2]

==============================================================================

Section Cross References

    startup_rtl8762c.o(VECTOR) refers to startup_rtl8762c.o(RESET) for Reset_Handler
    startup_rtl8762c.o(VECTOR) refers to startup_rtl8762c.o(.text) for NMI_Handler
    startup_rtl8762c.o(VECTOR) refers to data_uart.o(.text) for UART0_Handler
    startup_rtl8762c.o(VECTOR) refers to strip_timer.o(.text) for RTC_Handler
    startup_rtl8762c.o(VECTOR) refers to system_rtl8762c.o(.ram.dataon.data) for GPIO_Group3_Handler
    startup_rtl8762c.o(RESET) refers to system_rtl8762c.o(.app.flash.text) for SystemInit
    system_rtl8762c.o(.app.flash.text) refers to rand.o(.text) for srand
    system_rtl8762c.o(.app.flash.text) refers to rand.o(.emb_text) for rand
    system_rtl8762c.o(.app.flash.text) refers to overlay_mgr.o(.text) for load_overlay
    system_rtl8762c.o(.app.flash.text) refers to system_rtl8762c.o(.text) for NVIC_DisableIRQ
    system_rtl8762c.o(.app.flash.text) refers to system_rtl8762c.o(.app.overlay_a) for AppUpdateVectorTable
    system_rtl8762c.o(.app.flash.text) refers to main.o(.app.flash.text) for bt_stack_config_init
    system_rtl8762c.o(.app.flash.text) refers to system_rtl8762c.o(.bss) for .bss
    system_rtl8762c.o(.app.flash.text) refers to system_rtl8762c.o(.data) for .data
    system_rtl8762c.o(.app.flash.text) refers to system_rtl8762c.o(.TRACE) for .TRACE
    system_rtl8762c.o(.app.overlay_a) refers to system_rtl8762c.o(.constdata) for .constdata
    system_rtl8762c.o(.app.overlay_a) refers to startup_rtl8762c.o(.text) for Default_Handler
    system_rtl8762c.o(.app.overlay_a) refers to system_rtl8762c.o(.TRACE) for .TRACE
    system_rtl8762c.o(.ram.dataon.data) refers to startup_rtl8762c.o(.text) for GPIO3_Handler
    system_rtl8762c.o(.ram.dataon.data) refers to strip_app.o(.text) for GPIO20_Handler
    system_rtl8762c.o(.text) refers to __main.o(!!!main) for __main
    system_rtl8762c.o(.text) refers to system_rtl8762c.o(.constdata) for .constdata
    system_rtl8762c.o(.text) refers to system_rtl8762c.o(.data) for .data
    system_rtl8762c.o(.text) refers to system_rtl8762c.o(.bss) for .bss
    system_rtl8762c.o(.app.flash.header) refers to system_rtl8762c.o(.constdata) for app_cb_table
    system_rtl8762c.o(.constdata) refers to system_rtl8762c.o(.text) for app_cb0_wdg_reset
    system_rtl8762c.o(.constdata) refers to system_rtl8762c.o(.conststring) for .conststring
    rtl876x_io_dlps.o(.ram.dataon.data) refers to rtl876x_io_dlps.o(.bss) for .bss
    rtl876x_io_dlps.o(.ram.dataon.data) refers to rtl876x_io_dlps.o(.TRACE) for .TRACE
    rtl876x_io_dlps.o(.text) refers to rtl876x_io_dlps.o(.ram.dataon.data) for DLPS_IO_EnterDlpsCb
    rtl876x_tim.o(.text) refers to rtl876x_rcc.o(.text) for RCC_PeriphClockCmd
    rtl876x_uart.o(.text) refers to rtl876x_rcc.o(.text) for RCC_PeriphClockCmd
    rtl876x_gpio.o(.text) refers to rtl876x_rcc.o(.text) for RCC_PeriphClockCmd
    dfu_server.o(.text) refers to platform_misc.o(.text) for plt_swap2
    dfu_server.o(.text) refers to gap_scheduler.o(.text) for gap_sched_link_check
    dfu_server.o(.text) refers to mesh_bearer.o(.text) for bearer_send
    dfu_server.o(.text) refers to platform_os.o(.text) for plt_timer_create
    dfu_server.o(.text) refers to silent_dfu_flash.o(.text) for unlock_flash_all
    dfu_server.o(.text) refers to platform_diagnose.o(.data) for mesh_log_switch
    dfu_server.o(.text) refers to dfu_server.o(.TRACE) for .TRACE
    dfu_server.o(.text) refers to dfu_server.o(.constdata) for .constdata
    dfu_server.o(.text) refers to app_task.o(.bss) for io_queue_handle
    dfu_server.o(.text) refers to dfu_server.o(.bss) for .bss
    dfu_server.o(.text) refers to data_uart.o(.text) for data_uart_debug
    dfu_server.o(.text) refers to mesh_common.o(.text) for mesh_reboot
    dfu_server.o(.text) refers to system_rtl8762c.o(.text) for WDG_SystemReset
    dfu_server.o(.text) refers to dfu_server.o(.data) for .data
    dfu_server.o(.constdata) refers to dfu_server.o(.constdata) for dfu_service_uuid
    dfu_server.o(.constdata) refers to dfu_server.o(.text) for dfu_attr_write_cb
    dfu_client.o(.text) refers to dfu_client.o(.bss) for .bss
    dfu_client.o(.text) refers to platform_diagnose.o(.data) for mesh_log_switch
    dfu_client.o(.text) refers to dfu_client.o(.TRACE) for .TRACE
    dfu_client.o(.text) refers to dfu_server.o(.constdata) for dfu_service_uuid
    dfu_client.o(.text) refers to dfu_client.o(.data) for .data
    dfu_client.o(.text) refers to dfu_client.o(.constdata) for .constdata
    dfu_client.o(.text) refers to gap_scheduler.o(.text) for gap_sched_scan
    dfu_client.o(.text) refers to platform_misc.o(.text) for plt_swap2
    dfu_client.o(.text) refers to data_uart.o(.text) for data_uart_debug
    dfu_client.o(.text) refers to dfu_server.o(.bss) for dfu_ctx
    dfu_client.o(.constdata) refers to dfu_client.o(.text) for dfu_client_disc_state_cb
    ota_server.o(.text) refers to ota_server.o(.bss) for .bss
    ota_server.o(.text) refers to ota_server.o(.TRACE) for .TRACE
    ota_server.o(.text) refers to ota_server.o(.constdata) for .constdata
    ota_server.o(.constdata) refers to ota_server.o(.constdata) for GATT_UUID_OTA_SERVICE
    ota_server.o(.constdata) refers to ota_server.o(.text) for ota_attr_read_cb
    ais_server.o(.text) refers to _printf_pad.o(.text) for _printf_pre_padding
    ais_server.o(.text) refers to _printf_percent.o(.ARM.Collect$$_printf_percent$$00000000) for _printf_percent
    ais_server.o(.text) refers to _printf_x.o(.ARM.Collect$$_printf_percent$$0000000C) for _printf_x
    ais_server.o(.text) refers to _printf_hex_int.o(.text) for _printf_longlong_hex
    ais_server.o(.text) refers to platform_os.o(.text) for plt_timer_create
    ais_server.o(.text) refers to gap_scheduler.o(.text) for gap_sched_link_check
    ais_server.o(.text) refers to mesh_bearer.o(.text) for bearer_send
    ais_server.o(.text) refers to aes.o(.text) for AES128_CBC_encrypt_buffer
    ais_server.o(.text) refers to ais_server.o(.constdata) for .constdata
    ais_server.o(.text) refers to app_task.o(.bss) for io_queue_handle
    ais_server.o(.text) refers to ais_server.o(.bss) for .bss
    ais_server.o(.text) refers to platform_diagnose.o(.data) for mesh_log_switch
    ais_server.o(.text) refers to ais_server.o(.TRACE) for .TRACE
    ais_server.o(.text) refers to silent_dfu_flash.o(.text) for unlock_flash_all
    ais_server.o(.text) refers to mesh_common.o(.text) for mesh_reboot
    ais_server.o(.text) refers to user_data.o(.text) for user_data_contains_ali_data
    ais_server.o(.text) refers to noretval__2sprintf.o(.text) for __2sprintf
    ais_server.o(.constdata) refers to ais_server.o(.text) for ais_server_read_cb
    dis.o(.text) refers to dis.o(.bss) for .bss
    dis.o(.text) refers to dis.o(.TRACE) for .TRACE
    dis.o(.text) refers to dis.o(.data) for .data
    dis.o(.text) refers to dis.o(.constdata) for .constdata
    dis.o(.constdata) refers to dis.o(.text) for dis_attr_read_cb
    health_server.o(.text) refers to mesh_access.o(.text) for access_cfg
    health_server.o(.text) refers to mesh_node.o(.text) for mesh_model_pub_period_get
    health_server.o(.text) refers to health_server.o(.constdata) for .constdata
    health_server.o(.text) refers to platform_diagnose.o(.data) for mesh_log_switch
    health_server.o(.text) refers to health_server.o(.TRACE) for .TRACE
    firmware_update_server.o(.text) refers to firmware_update_server.o(.constdata) for .constdata
    firmware_update_server.o(.text) refers to firmware_update_server.o(.bss) for .bss
    firmware_update_server.o(.text) refers to platform_diagnose.o(.data) for mesh_log_switch
    firmware_update_server.o(.text) refers to firmware_update_server.o(.TRACE) for .TRACE
    firmware_update_server.o(.text) refers to mesh_node.o(.text) for mesh_model_reg
    firmware_update_server.o(.text) refers to mesh_access.o(.text) for access_cfg
    object_transfer_server.o(.text) refers to platform_misc.o(.text) for plt_bit_pool_get
    object_transfer_server.o(.text) refers to object_transfer_server.o(.constdata) for .constdata
    object_transfer_server.o(.text) refers to object_transfer_server.o(.bss) for .bss
    object_transfer_server.o(.text) refers to platform_diagnose.o(.data) for mesh_log_switch
    object_transfer_server.o(.text) refers to object_transfer_server.o(.TRACE) for .TRACE
    object_transfer_server.o(.text) refers to mesh_node.o(.text) for mesh_model_reg
    object_transfer_server.o(.text) refers to mesh_access.o(.text) for access_cfg
    generic_on_off_server.o(.text) refers to mesh_access.o(.text) for access_cfg
    generic_on_off_server.o(.text) refers to mesh_node.o(.text) for mesh_model_pub_check
    generic_on_off_server.o(.text) refers to generic_transition_time.o(.text) for generic_transition_timer_start
    generic_on_off_server.o(.text) refers to delay_execution.o(.text) for delay_execution_timer_start
    generic_on_off_server.o(.text) refers to generic_on_off_server.o(.constdata) for .constdata
    generic_on_off_server.o(.text) refers to platform_diagnose.o(.data) for mesh_log_switch
    generic_on_off_server.o(.text) refers to generic_on_off_server.o(.TRACE) for .TRACE
    generic_power_on_off_server.o(.text) refers to mesh_access.o(.text) for access_cfg
    generic_power_on_off_server.o(.text) refers to mesh_node.o(.text) for mesh_model_pub_check
    generic_power_on_off_server.o(.text) refers to platform_diagnose.o(.data) for mesh_log_switch
    generic_power_on_off_server.o(.text) refers to generic_power_on_off_server.o(.TRACE) for .TRACE
    generic_power_on_off_setup_server.o(.text) refers to generic_power_on_off_server.o(.text) for generic_on_power_up_stat
    generic_power_on_off_setup_server.o(.text) refers to mesh_node.o(.text) for mesh_model_reg
    generic_power_on_off_setup_server.o(.text) refers to platform_diagnose.o(.data) for mesh_log_switch
    generic_power_on_off_setup_server.o(.text) refers to generic_power_on_off_setup_server.o(.TRACE) for .TRACE
    generic_level_server.o(.text) refers to mesh_access.o(.text) for access_cfg
    generic_level_server.o(.text) refers to mesh_node.o(.text) for mesh_model_pub_check
    generic_level_server.o(.text) refers to generic_transition_time.o(.text) for generic_transition_timer_start
    generic_level_server.o(.text) refers to delay_execution.o(.text) for delay_execution_timer_start
    generic_level_server.o(.text) refers to generic_level_server.o(.constdata) for .constdata
    generic_level_server.o(.text) refers to platform_diagnose.o(.data) for mesh_log_switch
    generic_level_server.o(.text) refers to generic_level_server.o(.TRACE) for .TRACE
    generic_transition_time.o(.text) refers to mesh_common.o(.text) for mesh_tick_timer_stop
    generic_transition_time.o(.text) refers to generic_transition_time.o(.constdata) for .constdata
    generic_transition_time.o(.text) refers to generic_transition_time.o(.bss) for .bss
    generic_transition_time.o(.text) refers to platform_diagnose.o(.data) for mesh_log_switch
    generic_transition_time.o(.text) refers to generic_transition_time.o(.TRACE) for .TRACE
    light_lightness_server.o(.text) refers to dflt_clz.o(x$fpl$dfltu) for __aeabi_ui2d
    light_lightness_server.o(.text) refers to ddiv.o(x$fpl$ddiv) for __aeabi_ddiv
    light_lightness_server.o(.text) refers to sqrt.o(i.__hardfp_sqrt) for __hardfp_sqrt
    light_lightness_server.o(.text) refers to dmul.o(x$fpl$dmul) for __aeabi_dmul
    light_lightness_server.o(.text) refers to dfixu.o(x$fpl$dfixu) for __aeabi_d2uiz
    light_lightness_server.o(.text) refers to mesh_node.o(.text) for mesh_model_pub_check
    light_lightness_server.o(.text) refers to generic_transition_time.o(.text) for generic_transition_timer_start
    light_lightness_server.o(.text) refers to delay_execution.o(.text) for delay_execution_timer_start
    light_lightness_server.o(.text) refers to mesh_access.o(.text) for access_cfg
    light_lightness_server.o(.text) refers to light_lightness_server.o(.data) for .data
    light_lightness_server.o(.text) refers to light_lightness_server.o(.constdata) for .constdata
    light_lightness_server.o(.text) refers to platform_diagnose.o(.data) for mesh_log_switch
    light_lightness_server.o(.text) refers to light_lightness_server.o(.TRACE) for .TRACE
    light_lightness_setup_server.o(.text) refers to light_lightness_server.o(.text) for light_lightness_default_stat
    light_lightness_setup_server.o(.text) refers to mesh_node.o(.text) for mesh_model_reg
    light_lightness_setup_server.o(.text) refers to platform_diagnose.o(.data) for mesh_log_switch
    light_lightness_setup_server.o(.text) refers to light_lightness_setup_server.o(.TRACE) for .TRACE
    light_ctl_server.o(.text) refers to dflt_clz.o(x$fpl$dflt) for __aeabi_i2d
    light_ctl_server.o(.text) refers to dmul.o(x$fpl$dmul) for __aeabi_dmul
    light_ctl_server.o(.text) refers to ddiv.o(x$fpl$ddiv) for __aeabi_ddiv
    light_ctl_server.o(.text) refers to daddsub_clz.o(x$fpl$dsub) for __aeabi_dsub
    light_ctl_server.o(.text) refers to dfix.o(x$fpl$dfix) for __aeabi_d2iz
    light_ctl_server.o(.text) refers to daddsub_clz.o(x$fpl$dadd) for __aeabi_dadd
    light_ctl_server.o(.text) refers to dfixu.o(x$fpl$dfixu) for __aeabi_d2uiz
    light_ctl_server.o(.text) refers to d2f.o(x$fpl$d2f) for __aeabi_d2f
    light_ctl_server.o(.text) refers to mesh_node.o(.text) for mesh_model_pub_check
    light_ctl_server.o(.text) refers to generic_transition_time.o(.text) for generic_transition_timer_start
    light_ctl_server.o(.text) refers to delay_execution.o(.text) for delay_execution_timer_start
    light_ctl_server.o(.text) refers to mesh_access.o(.text) for access_cfg
    light_ctl_server.o(.text) refers to light_ctl_server.o(.constdata) for .constdata
    light_ctl_server.o(.text) refers to platform_diagnose.o(.data) for mesh_log_switch
    light_ctl_server.o(.text) refers to light_ctl_server.o(.TRACE) for .TRACE
    light_ctl_temperature_server.o(.text) refers to mesh_node.o(.text) for mesh_model_pub_check
    light_ctl_temperature_server.o(.text) refers to light_ctl_server.o(.text) for light_ctl_temperature_stat
    light_ctl_temperature_server.o(.text) refers to generic_transition_time.o(.text) for generic_transition_timer_start
    light_ctl_temperature_server.o(.text) refers to delay_execution.o(.text) for delay_execution_timer_start
    light_ctl_temperature_server.o(.text) refers to light_ctl_temperature_server.o(.constdata) for .constdata
    light_ctl_temperature_server.o(.text) refers to platform_diagnose.o(.data) for mesh_log_switch
    light_ctl_temperature_server.o(.text) refers to light_ctl_temperature_server.o(.TRACE) for .TRACE
    light_hsl_server.o(.text) refers to mesh_node.o(.text) for mesh_model_pub_check
    light_hsl_server.o(.text) refers to generic_transition_time.o(.text) for generic_transition_timer_start
    light_hsl_server.o(.text) refers to delay_execution.o(.text) for delay_execution_timer_start
    light_hsl_server.o(.text) refers to light_hsl_server.o(.constdata) for .constdata
    light_hsl_server.o(.text) refers to platform_diagnose.o(.data) for mesh_log_switch
    light_hsl_server.o(.text) refers to light_hsl_server.o(.TRACE) for .TRACE
    light_hsl_server.o(.text) refers to mesh_access.o(.text) for access_cfg
    light_hsl_hue_server.o(.text) refers to mesh_access.o(.text) for access_cfg
    light_hsl_hue_server.o(.text) refers to mesh_node.o(.text) for mesh_model_pub_check
    light_hsl_hue_server.o(.text) refers to generic_transition_time.o(.text) for generic_transition_timer_start
    light_hsl_hue_server.o(.text) refers to delay_execution.o(.text) for delay_execution_timer_start
    light_hsl_hue_server.o(.text) refers to light_hsl_hue_server.o(.constdata) for .constdata
    light_hsl_hue_server.o(.text) refers to platform_diagnose.o(.data) for mesh_log_switch
    light_hsl_hue_server.o(.text) refers to light_hsl_hue_server.o(.TRACE) for .TRACE
    light_hsl_saturation_server.o(.text) refers to mesh_access.o(.text) for access_cfg
    light_hsl_saturation_server.o(.text) refers to mesh_node.o(.text) for mesh_model_pub_check
    light_hsl_saturation_server.o(.text) refers to generic_transition_time.o(.text) for generic_transition_timer_start
    light_hsl_saturation_server.o(.text) refers to delay_execution.o(.text) for delay_execution_timer_start
    light_hsl_saturation_server.o(.text) refers to light_hsl_saturation_server.o(.constdata) for .constdata
    light_hsl_saturation_server.o(.text) refers to platform_diagnose.o(.data) for mesh_log_switch
    light_hsl_saturation_server.o(.text) refers to light_hsl_saturation_server.o(.TRACE) for .TRACE
    light_hsl_setup_server.o(.text) refers to light_hsl_server.o(.text) for light_hsl_default_stat
    light_hsl_setup_server.o(.text) refers to mesh_node.o(.text) for mesh_model_reg
    light_hsl_setup_server.o(.text) refers to platform_diagnose.o(.data) for mesh_log_switch
    light_hsl_setup_server.o(.text) refers to light_hsl_setup_server.o(.TRACE) for .TRACE
    light_cwrgb_server.o(.text) refers to mesh_access.o(.text) for access_cfg
    light_cwrgb_server.o(.text) refers to mesh_node.o(.text) for mesh_model_reg
    generic_default_transition_time_server.o(.text) refers to mesh_access.o(.text) for access_cfg
    generic_default_transition_time_server.o(.text) refers to mesh_node.o(.text) for mesh_model_pub_check
    generic_default_transition_time_server.o(.text) refers to platform_diagnose.o(.data) for mesh_log_switch
    generic_default_transition_time_server.o(.text) refers to generic_default_transition_time_server.o(.TRACE) for .TRACE
    scene_server.o(.text) refers to mesh_node.o(.text) for mesh_model_pub_check
    scene_server.o(.text) refers to generic_transition_time.o(.text) for generic_transition_timer_start
    scene_server.o(.text) refers to delay_execution.o(.text) for delay_execution_timer_start
    scene_server.o(.text) refers to scene_server.o(.constdata) for .constdata
    scene_server.o(.text) refers to platform_diagnose.o(.data) for mesh_log_switch
    scene_server.o(.text) refers to scene_server.o(.TRACE) for .TRACE
    scene_server.o(.text) refers to mesh_access.o(.text) for access_cfg
    light_ctl_setup_server.o(.text) refers to light_ctl_server.o(.text) for light_ctl_temperature_range_stat
    light_ctl_setup_server.o(.text) refers to mesh_node.o(.text) for mesh_model_reg
    light_ctl_setup_server.o(.text) refers to platform_diagnose.o(.data) for mesh_log_switch
    light_ctl_setup_server.o(.text) refers to light_ctl_setup_server.o(.TRACE) for .TRACE
    scene_setup_server.o(.text) refers to scene_server.o(.text) for get_current_scene
    scene_setup_server.o(.text) refers to mesh_node.o(.text) for mesh_model_reg
    scene_setup_server.o(.text) refers to scene_setup_server.o(.constdata) for .constdata
    scene_setup_server.o(.text) refers to platform_diagnose.o(.data) for mesh_log_switch
    scene_setup_server.o(.text) refers to scene_setup_server.o(.TRACE) for .TRACE
    delay_execution.o(.text) refers to mesh_common.o(.text) for mesh_inner_msg_send
    delay_execution.o(.text) refers to platform_os.o(.text) for plt_timer_create
    delay_execution.o(.text) refers to delay_execution.o(.bss) for .bss
    delay_execution.o(.text) refers to platform_diagnose.o(.data) for mesh_log_switch
    delay_execution.o(.text) refers to delay_execution.o(.TRACE) for .TRACE
    delay_execution.o(.text) refers to delay_execution.o(.constdata) for .constdata
    ali_model.o(.text) refers to mesh_access.o(.text) for access_cfg
    ali_model.o(.text) refers to mesh_node.o(.text) for mesh_model_info_get_by_model_id
    ali_model.o(.text) refers to ali_model.o(.constdata) for .constdata
    dfu_updater_app.o(.text) refers to object_transfer_server.o(.text) for obj_transfer_server_busy
    dfu_updater_app.o(.text) refers to silent_dfu_flash.o(.text) for unlock_flash_all
    dfu_updater_app.o(.text) refers to mesh_common.o(.text) for mesh_reboot
    dfu_updater_app.o(.text) refers to firmware_update_server.o(.text) for fw_update_server_ready
    dfu_updater_app.o(.text) refers to mesh_flash.o(.text) for mesh_flash_restore_node_state
    dfu_updater_app.o(.text) refers to dfu_updater_app.o(.bss) for .bss
    dfu_updater_app.o(.text) refers to platform_diagnose.o(.data) for mesh_log_switch
    dfu_updater_app.o(.text) refers to dfu_updater_app.o(.TRACE) for .TRACE
    dimmable_light.o(.text) refers to rtl876x_rcc.o(.text) for RCC_PeriphClockCmd
    dimmable_light.o(.text) refers to dflt_clz.o(x$fpl$dfltu) for __aeabi_ui2d
    dimmable_light.o(.text) refers to dmul.o(x$fpl$dmul) for __aeabi_dmul
    dimmable_light.o(.text) refers to dfixu.o(x$fpl$dfixu) for __aeabi_d2uiz
    dimmable_light.o(.text) refers to rtl876x_tim.o(.text) for TIM_PWMChangeFreqAndDuty
    dimmable_light.o(.text) refers to mesh_node.o(.text) for mesh_node_clear
    dimmable_light.o(.text) refers to platform_os.o(.text) for plt_timer_create
    dimmable_light.o(.text) refers to dimmable_light.o(.data) for .data
    dimmable_light.o(.text) refers to light_cwrgb_app.o(.bss) for switch_status
    dimmable_light.o(.text) refers to platform_diagnose.o(.data) for mesh_log_switch
    dimmable_light.o(.text) refers to dimmable_light.o(.TRACE) for .TRACE
    dimmable_light.o(.text) refers to dimmable_light.o(.bss) for .bss
    mp_cmd_parse.o(.text) refers to data_uart.o(.text) for data_uart_send_string
    mp_cmd_parse.o(.text) refers to platform_diagnose.o(.data) for mesh_log_switch
    mp_cmd_parse.o(.text) refers to mp_cmd_parse.o(.bss) for .bss
    mp_cmd_parse.o(.text) refers to mp_cmd_parse.o(.TRACE) for .TRACE
    mp_cmd_parse.o(.text) refers to mp_cmd_parse.o(.constdata) for .constdata
    overlay_mgr.o(.text) refers to overlay_mgr.o(.data) for .data
    overlay_mgr.o(.text) refers to overlay_mgr.o(.bss) for .bss
    overlay_mgr.o(.data) refers to overlay_mgr.o(.conststring) for .conststring
    light_effect_app.o(.text) refers to light_cwrgb_app.o(.text) for light_cwrgb_turn_off
    light_effect_app.o(.text) refers to light_controller_app.o(.text) for light_blink
    light_effect_app.o(.text) refers to light_storage_app.o(.text) for light_state_store
    light_effect_app.o(.text) refers to light_effect_app.o(.constdata) for .constdata
    light_storage_app.o(.text) refers to light_cwrgb_app.o(.text) for light_get_cw_lightness
    light_storage_app.o(.text) refers to dimmable_light.o(.text) for light_flash_write
    light_storage_app.o(.text) refers to mesh_flash.o(.text) for mesh_flash_restore_node_state
    light_storage_app.o(.text) refers to light_storage_app.o(.constdata) for .constdata
    light_cwrgb_app.o(.text) refers to f2d.o(x$fpl$f2d) for __aeabi_f2d
    light_cwrgb_app.o(.text) refers to daddsub_clz.o(x$fpl$dadd) for __aeabi_dadd
    light_cwrgb_app.o(.text) refers to d2f.o(x$fpl$d2f) for __aeabi_d2f
    light_cwrgb_app.o(.text) refers to ceil.o(i.__hardfp_ceil) for __hardfp_ceil
    light_cwrgb_app.o(.text) refers to dfixu.o(x$fpl$dfixu) for __aeabi_d2uiz
    light_cwrgb_app.o(.text) refers to daddsub_clz.o(x$fpl$dsub) for __aeabi_dsub
    light_cwrgb_app.o(.text) refers to dflt_clz.o(x$fpl$dfltu) for __aeabi_ui2d
    light_cwrgb_app.o(.text) refers to dflt_clz.o(x$fpl$dflt) for __aeabi_i2d
    light_cwrgb_app.o(.text) refers to dmul.o(x$fpl$dmul) for __aeabi_dmul
    light_cwrgb_app.o(.text) refers to ddiv.o(x$fpl$ddiv) for __aeabi_ddiv
    light_cwrgb_app.o(.text) refers to rtl876x_rcc.o(.text) for RCC_PeriphClockCmd
    light_cwrgb_app.o(.text) refers to rtl876x_gpio.o(.text) for GPIO_StructInit
    light_cwrgb_app.o(.text) refers to dimmable_light.o(.text) for light_pin_config
    light_cwrgb_app.o(.text) refers to light_cwrgb_app.o(.bss) for .bss
    light_cwrgb_app.o(.text) refers to light_cwrgb_app.o(.data) for .data
    app_task.o(.text) refers to mesh_common.o(.text) for mesh_start
    app_task.o(.text) refers to mp_cmd.o(.text) for mp_cmd_table_length
    app_task.o(.text) refers to mp_cmd_parse.o(.text) for mp_cmd_init
    app_task.o(.text) refers to data_uart.o(.text) for data_uart_init
    app_task.o(.text) refers to strip_timer.o(.text) for swTimerInit
    app_task.o(.text) refers to main_app.o(.text) for app_handle_io_msg
    app_task.o(.text) refers to app_task.o(.constdata) for .constdata
    app_task.o(.text) refers to app_task.o(.bss) for .bss
    app_task.o(.text) refers to app_task.o(.TRACE) for .TRACE
    app_task.o(.text) refers to mp_cmd.o(.constdata) for mp_cmd_table
    main.o(.app.flash.text) refers to gap_config.o(.app.flash.text) for gap_config_bt_report_buf_num
    main.o(.text) refers to platform_diagnose.o(.text) for diag_level_set
    main.o(.text) refers to platform_misc.o(.text) for plt_srand
    main.o(.text) refers to gap_scheduler.o(.text) for gap_sched_params_set
    main.o(.text) refers to user_data.o(.text) for user_data_contains_ali_data
    main.o(.text) refers to mesh_node.o(.text) for device_uuid_set
    main.o(.text) refers to mesh_provision.o(.text) for prov_params_set
    main.o(.text) refers to health_server.o(.text) for health_server_reg
    main.o(.text) refers to dfu_updater_app.o(.text) for dfu_updater_models_init
    main.o(.text) refers to strip_app.o(.text) for strip_server_models_init
    main.o(.text) refers to light_storage_app.o(.text) for light_flash_restore
    main.o(.text) refers to mesh_common.o(.text) for mesh_init
    main.o(.text) refers to friendship_fn.o(.text) for fn_init
    main.o(.text) refers to ais_server.o(.text) for ais_server_add
    main.o(.text) refers to dis.o(.text) for dis_add_service
    main.o(.text) refers to ota_server.o(.text) for ota_server_add
    main.o(.text) refers to dfu_server.o(.text) for dfu_server_add
    main.o(.text) refers to dimmable_light.o(.text) for light_driver_init
    main.o(.text) refers to light_cwrgb_app.o(.text) for board_plug_io_init
    main.o(.text) refers to light_dlps_ctrl.o(.text) for light_check_dlps
    main.o(.text) refers to rtl876x_io_dlps.o(.text) for DLPS_IORegister
    main.o(.text) refers to app_task.o(.text) for app_task_init
    main.o(.text) refers to gap_lib.o(.text) for gap_lib_init
    main.o(.text) refers to main.o(.constdata) for .constdata
    main.o(.text) refers to main_app.o(.text) for prov_cb
    main.o(.text) refers to main.o(.bss) for .bss
    main.o(.text) refers to main_app.o(.bss) for dis_server_id
    main.o(.text) refers to main.o(.TRACE) for .TRACE
    main.o(.text) refers to rtl876x_io_dlps.o(.bss) for User_IO_EnterDlpsCB
    strip_app.o(.text) refers to dimmable_light.o(.text) for light_set_all_turn_off
    strip_app.o(.text) refers to light_cwrgb_app.o(.text) for plug_on_off_pin_cmd
    strip_app.o(.text) refers to strip_timer.o(.text) for is_in_list
    strip_app.o(.text) refers to app_task.o(.text) for app_send_msg_to_apptask
    strip_app.o(.text) refers to ali_model.o(.text) for ali_attr_msg
    strip_app.o(.text) refers to strip_app.o(.bss) for .bss
    strip_app.o(.text) refers to strip_app.o(.conststring) for .conststring
    strip_app.o(.text) refers to strip_app.o(.constdata) for .constdata
    strip_app.o(.text) refers to strip_timer.o(.bss) for timer_list
    strip_app.o(.text) refers to strip_app.o(.data) for .data
    strip_app.o(.text) refers to generic_on_off_server.o(.text) for generic_on_off_server_reg
    strip_app.o(.text) refers to mesh_node.o(.text) for mesh_model_pub_params_set
    strip_app.o(.text) refers to rtl876x_gpio.o(.text) for GPIO_GetPin
    mp_cmd.o(.text) refers to rtl876x_lib_platform.o(i.UpdateMAC) for UpdateMAC
    mp_cmd.o(.text) refers to user_data.o(.text) for user_data_write_ali_data
    mp_cmd.o(.text) refers to platform_diagnose.o(.data) for mesh_log_switch
    mp_cmd.o(.text) refers to mp_cmd.o(.TRACE) for .TRACE
    mp_cmd.o(.text) refers to mp_cmd.o(.constdata) for .constdata
    mp_cmd.o(.constdata) refers to mp_cmd.o(.text) for mp_cmd_update_ali_data
    strip_timer.o(.text) refers to strip_app.o(.text) for send_update_request
    strip_timer.o(.text) refers to app_task.o(.text) for app_send_msg_to_apptask
    strip_timer.o(.text) refers to strip_app.o(.data) for temp_tid
    strip_timer.o(.text) refers to strip_app.o(.bss) for strip_data_current
    strip_timer.o(.text) refers to strip_timer.o(.bss) for .bss
    strip_timer.o(.text) refers to strip_timer.o(.TRACE) for .TRACE
    main_app.o(.text) refers to _printf_pad.o(.text) for _printf_pre_padding
    main_app.o(.text) refers to _printf_percent.o(.ARM.Collect$$_printf_percent$$00000000) for _printf_percent
    main_app.o(.text) refers to _printf_x.o(.ARM.Collect$$_printf_percent$$0000000C) for _printf_x
    main_app.o(.text) refers to _printf_hex_int.o(.text) for _printf_longlong_hex
    main_app.o(.text) refers to dfu_client.o(.text) for dfu_client_handle_connect
    main_app.o(.text) refers to light_effect_app.o(.text) for light_gap_state_connected
    main_app.o(.text) refers to dfu_server.o(.text) for dfu_server_disconnect_cb
    main_app.o(.text) refers to ais_server.o(.text) for ais_server_disconnect_cb
    main_app.o(.text) refers to gap_scheduler.o(.text) for gap_sched_handle_bt_status_msg
    main_app.o(.text) refers to gap_lib_patch.o(.text) for le_bond_just_work_confirm
    main_app.o(.text) refers to dimmable_light.o(.text) for light_set_all_turn_on
    main_app.o(.text) refers to main_app.o(.bss) for .bss
    main_app.o(.text) refers to main_app.o(.TRACE) for .TRACE
    main_app.o(.text) refers to mesh_node.o(.bss) for mesh_node
    main_app.o(.text) refers to mp_cmd_parse.o(.text) for mp_cmd_parse
    main_app.o(.text) refers to strip_app.o(.text) for send_update_request
    main_app.o(.text) refers to app_task.o(.text) for app_send_msg_to_apptask
    main_app.o(.text) refers to strip_timer.o(.text) for timer_sort
    main_app.o(.text) refers to light_swtimer.o(.text) for light_handle_sw_timer_msg
    main_app.o(.text) refers to light_cwrgb_app.o(.text) for plug_on_off_pin_cmd
    main_app.o(.text) refers to dis.o(.text) for dis_set_parameter
    main_app.o(.text) refers to strip_app.o(.bss) for strip_data_current
    main_app.o(.text) refers to strip_timer.o(.bss) for local_time
    main_app.o(.text) refers to main_app.o(.data) for .data
    main_app.o(.text) refers to strip_app.o(.data) for sys_clk_update
    main_app.o(.text) refers to dfu_client.o(.data) for dfu_client_id
    main_app.o(.text) refers to mesh_provision.o(.text) for prov_params_set
    main_app.o(.text) refers to user_data.o(.text) for user_data_contains_ali_data
    main_app.o(.text) refers to noretval__2sprintf.o(.text) for __2sprintf
    main_app.o(.text) refers to provision_device.o(.text) for prov_auth_value_set
    main_app.o(.text) refers to dfu_updater_app.o(.text) for dfu_updater_clear
    main_app.o(.text) refers to mesh_node.o(.text) for mesh_model_bind
    main_app.o(.text) refers to data_uart.o(.text) for data_uart_debug
    main_app.o(.text) refers to dfu_server.o(.bss) for dfu_server_id
    main_app.o(.text) refers to platform_diagnose.o(.data) for mesh_log_switch
    main_app.o(.text) refers to main_app.o(.constdata) for .constdata
    main_app.o(.constdata) refers to main_app.o(.conststring) for .conststring
    main_app.o(.data) refers to main_app.o(.bss) for temp
    silent_dfu_flash.o(.text) refers to rtl8762c_lib_flash.o(i.flash_sw_protect_unlock_by_addr_locked) for flash_sw_protect_unlock_by_addr_locked
    silent_dfu_flash.o(.text) refers to rtl8762c_lib_flash.o(i.flash_set_block_protect_locked) for flash_set_block_protect_locked
    silent_dfu_flash.o(.text) refers to silent_dfu_flash.o(.TRACE) for .TRACE
    silent_dfu_flash.o(.text) refers to silent_dfu_flash.o(.data) for .data
    silent_dfu_flash.o(.text) refers to silent_dfu_flash.o(.bss) for .bss
    delay_msg_rsp.o(.text) refers to rand.o(.emb_text) for rand
    delay_msg_rsp.o(.text) refers to generic_transition_time.o(.text) for generic_transition_time_convert
    light_controller_app.o(.text) refers to dimmable_light.o(.text) for light_lighten
    light_controller_app.o(.text) refers to platform_os.o(.text) for plt_timer_create
    light_controller_app.o(.text) refers to light_controller_app.o(.bss) for .bss
    light_controller_app.o(.text) refers to platform_diagnose.o(.data) for mesh_log_switch
    light_controller_app.o(.text) refers to light_controller_app.o(.TRACE) for .TRACE
    light_swtimer.o(.text) refers to app_task.o(.text) for app_send_msg_to_apptask
    light_swtimer.o(.text) refers to light_dlps_ctrl.o(.text) for light_unprov_ctrl_dlps
    light_swtimer.o(.text) refers to platform_os.o(.text) for plt_timer_create
    light_swtimer.o(.text) refers to gap_scheduler.o(.text) for gap_sched_params_set
    light_swtimer.o(.text) refers to mesh_beacon.o(.text) for beacon_stop
    light_swtimer.o(.text) refers to mesh_service.o(.text) for mesh_service_adv_stop
    light_swtimer.o(.text) refers to ais_server.o(.text) for ais_server_timer_stop
    light_swtimer.o(.text) refers to light_controller_app.o(.text) for light_controller_deinit
    light_swtimer.o(.text) refers to light_swtimer.o(.bss) for .bss
    light_swtimer.o(.text) refers to light_swtimer.o(.TRACE) for .TRACE
    light_swtimer.o(.text) refers to mesh_node.o(.bss) for mesh_node
    light_dlps_ctrl.o(.text) refers to light_dlps_ctrl.o(.bss) for .bss
    rtl8762c_lib_flash.o(i.flash_get_block_protect_locked) refers to rtl8762c_lib_flash.o(i.flash_lock_new) for flash_lock_new
    rtl8762c_lib_flash.o(i.flash_get_block_protect_locked) refers to rtl8762c_lib_flash.o(i.flash_unlock_new) for flash_unlock_new
    rtl8762c_lib_flash.o(i.flash_otp_enter_locked) refers to rtl8762c_lib_flash.o(.bss) for .bss
    rtl8762c_lib_flash.o(i.flash_otp_erase) refers to rtl8762c_lib_flash.o(.bss) for .bss
    rtl8762c_lib_flash.o(i.flash_otp_erase_locked) refers to rtl8762c_lib_flash.o(i.flash_otp_erase) for flash_otp_erase
    rtl8762c_lib_flash.o(i.flash_otp_erase_locked) refers to rtl8762c_lib_flash.o(.bss) for .bss
    rtl8762c_lib_flash.o(i.flash_otp_exit_locked) refers to rtl8762c_lib_flash.o(.bss) for .bss
    rtl8762c_lib_flash.o(i.flash_otp_get_lb_locked) refers to rtl8762c_lib_flash.o(.bss) for .bss
    rtl8762c_lib_flash.o(i.flash_otp_init) refers to rtl8762c_lib_flash.o(.bss) for .bss
    rtl8762c_lib_flash.o(i.flash_otp_init) refers to xtx_flash_otp.o(.ram.dataon.data) for xtx_otp_erase_internal
    rtl8762c_lib_flash.o(i.flash_otp_init) refers to xtx_flash_otp.o(i.xtx_otp_enter_internal) for xtx_otp_enter_internal
    rtl8762c_lib_flash.o(i.flash_otp_init) refers to xtx_flash_otp.o(i.xtx_otp_exit_internal) for xtx_otp_exit_internal
    rtl8762c_lib_flash.o(i.flash_otp_init) refers to mxic_flash_otp.o(.ram.dataon.data) for mxic_otp_erase_internal
    rtl8762c_lib_flash.o(i.flash_otp_read) refers to rtl8762c_lib_flash.o(.bss) for .bss
    rtl8762c_lib_flash.o(i.flash_otp_read_locked) refers to rtl8762c_lib_flash.o(i.flash_otp_read) for flash_otp_read
    rtl8762c_lib_flash.o(i.flash_otp_read_locked) refers to rtl8762c_lib_flash.o(.bss) for .bss
    rtl8762c_lib_flash.o(i.flash_otp_set_lb_locked) refers to rtl8762c_lib_flash.o(.bss) for .bss
    rtl8762c_lib_flash.o(i.flash_otp_write) refers to rtl8762c_lib_flash.o(.bss) for .bss
    rtl8762c_lib_flash.o(i.flash_otp_write_locked) refers to rtl8762c_lib_flash.o(i.flash_otp_write) for flash_otp_write
    rtl8762c_lib_flash.o(i.flash_otp_write_locked) refers to rtl8762c_lib_flash.o(.bss) for .bss
    rtl8762c_lib_flash.o(i.flash_set_block_protect_locked) refers to rtl8762c_lib_flash.o(i.flash_lock_new) for flash_lock_new
    rtl8762c_lib_flash.o(i.flash_set_block_protect_locked) refers to rtl8762c_lib_flash.o(i.flash_unlock_new) for flash_unlock_new
    rtl8762c_lib_flash.o(i.flash_sw_protect_unlock_by_addr_locked) refers to rtl8762c_lib_flash.o(i.flash_lock_new) for flash_lock_new
    rtl8762c_lib_flash.o(i.flash_sw_protect_unlock_by_addr_locked) refers to rtl8762c_lib_flash.o(i.flash_sw_protect_unlock_by_addr_new) for flash_sw_protect_unlock_by_addr_new
    rtl8762c_lib_flash.o(i.flash_sw_protect_unlock_by_addr_locked) refers to rtl8762c_lib_flash.o(i.flash_unlock_new) for flash_unlock_new
    rtl876x_lib_platform.o(i.UpdateMAC) refers to rtl876x_lib_cfg_int.o(i.cfg_add_item) for cfg_add_item
    rtl876x_lib_platform.o(i.WriteXtalToConfig) refers to rtl876x_lib_cfg_int.o(i.cfg_add_item) for cfg_add_item
    rtl876x_lib_platform.o(i.WriteXtalToEfuse) refers to rtl876x_lib_efuse_int.o(i.get_efuse_logic_item_cnt) for get_efuse_logic_item_cnt
    rtl876x_lib_platform.o(i.WriteXtalToEfuse) refers to rtl876x_lib_efuse_int.o(i.write_efuse_bank_data) for write_efuse_bank_data
    rtl876x_lib_platform.o(i.WriteXtalToEfuse) refers to rtl876x_lib_efuse_int.o(.data) for efuse_write_enable
    rtl876x_lib_platform.o(i.WriteXtalToEfuse) refers to rtl876x_lib_platform.o(.TRACE) for .TRACE
    rtl876x_lib_platform.o(i.update_mac_to_efuse) refers to rtl876x_lib_efuse_int.o(i.get_efuse_logic_item_cnt) for get_efuse_logic_item_cnt
    rtl876x_lib_platform.o(i.update_mac_to_efuse) refers to rtl876x_lib_efuse_int.o(i.write_efuse_bank_data) for write_efuse_bank_data
    rtl876x_lib_platform.o(i.update_mac_to_efuse) refers to rtl876x_lib_efuse_int.o(.data) for efuse_write_enable
    rtl876x_lib_platform.o(i.update_mac_to_efuse) refers to rtl876x_lib_platform.o(.TRACE) for .TRACE
    gap_config.o(.text) refers to gap_config.o(.TRACE) for .TRACE
    gap_lib.o(.text) refers to gap_vendor_cmd.o(.text) for le_handle_vendor_cmd_rsp
    gap_lib.o(.text) refers to gap_lib_patch.o(.text) for le_handle_sw_reset_rsp
    gap_lib.o(.text) refers to gap_lib.o(.TRACE) for .TRACE
    gap_lib_patch.o(.text) refers to rand.o(.emb_text) for rand
    gap_lib_patch.o(.text) refers to gap_lib_patch.o(.TRACE) for .TRACE
    platform_os.o(.text) refers to platform_os.o(.constdata) for .constdata
    platform_misc.o(.text) refers to rand.o(.emb_text) for rand
    platform_misc.o(.text) refers to platform_diagnose.o(.data) for mesh_log_switch
    platform_misc.o(.text) refers to platform_misc.o(.TRACE) for .TRACE
    platform_diagnose.o(.text) refers to platform_diagnose.o(.data) for .data
    aes.o(.text) refers to aes.o(.bss) for .bss
    aes.o(.text) refers to aes.o(.constdata) for .constdata
    data_uart.o(.text) refers to rtl876x_uart.o(.text) for UART_INTConfig
    data_uart.o(.text) refers to rtl876x_rcc.o(.text) for RCC_PeriphClockCmd
    data_uart.o(.text) refers to data_uart.o(.bss) for .bss
    data_uart.o(.text) refers to platform_diagnose.o(.data) for mesh_log_switch
    data_uart.o(.text) refers to data_uart.o(.TRACE) for .TRACE
    data_uart.o(.text) refers to data_uart.o(.constdata) for .constdata
    gap_scheduler.o(.text) refers to platform_list.o(.text) for plt_list_pop
    gap_scheduler.o(.text) refers to mesh_common.o(.text) for mesh_inner_msg_send
    gap_scheduler.o(.text) refers to platform_os.o(.text) for plt_timer_is_active
    gap_scheduler.o(.text) refers to gap_scheduler.o(.bss) for .bss
    gap_scheduler.o(.text) refers to platform_diagnose.o(.data) for mesh_log_switch
    gap_scheduler.o(.text) refers to gap_scheduler.o(.TRACE) for .TRACE
    gap_scheduler.o(.text) refers to gap_scheduler.o(.data) for .data
    gap_scheduler.o(.text) refers to mesh_bearer.o(.text) for bearer_adv_receive
    gap_scheduler.o(.text) refers to gap_scheduler.o(.constdata) for .constdata
    gap_scheduler.o(.text) refers to gap_vendor_cmd.o(.text) for le_vendor_modify_bt_le_fw_policy
    gap_scheduler.o(.text) refers to mesh_node.o(.bss) for mesh_node
    mesh_access.o(.text) refers to mesh_node.o(.text) for mesh_msg_cfg
    mesh_access.o(.text) refers to mesh_transport.o(.text) for trans_send
    mesh_access.o(.text) refers to platform_misc.o(.text) for plt_bit_pool_get
    mesh_access.o(.text) refers to mesh_node.o(.bss) for mesh_node
    mesh_access.o(.text) refers to platform_diagnose.o(.data) for mesh_log_switch
    mesh_access.o(.text) refers to mesh_access.o(.TRACE) for .TRACE
    mesh_access.o(.text) refers to mesh_access.o(.bss) for .bss
    mesh_bearer.o(.text) refers to proxy_service.o(.text) for proxy_service_send
    mesh_bearer.o(.text) refers to friendship_fn.o(.text) for fn_get_lpn1
    mesh_bearer.o(.text) refers to mesh_common.o(.text) for mesh_inner_msg_send
    mesh_bearer.o(.text) refers to proxy_protocol.o(.text) for proxy_ctx_get_link
    mesh_bearer.o(.text) refers to gap_scheduler.o(.text) for gap_sched_try
    mesh_bearer.o(.text) refers to mesh_network.o(.text) for net_receive
    mesh_bearer.o(.text) refers to mesh_service.o(.text) for mesh_service_adv_receive
    mesh_bearer.o(.text) refers to mesh_beacon.o(.text) for beacon_receive
    mesh_bearer.o(.text) refers to provision_adv.o(.text) for pb_adv_receive
    mesh_bearer.o(.text) refers to mesh_node.o(.bss) for mesh_node
    mesh_bearer.o(.text) refers to platform_diagnose.o(.data) for mesh_log_switch
    mesh_bearer.o(.text) refers to mesh_bearer.o(.constdata) for .constdata
    mesh_bearer.o(.text) refers to mesh_bearer.o(.TRACE) for .TRACE
    mesh_bearer.o(.text) refers to proxy_service.o(.data) for proxy_ctx_id
    mesh_bearer.o(.text) refers to mesh_bearer.o(.bss) for .bss
    mesh_beacon.o(.text) refers to mesh_security.o(.text) for mesh_s1
    mesh_beacon.o(.text) refers to provision_adv.o(.text) for pb_adv_link_check
    mesh_beacon.o(.text) refers to gap_scheduler.o(.text) for gap_sched_task_get
    mesh_beacon.o(.text) refers to mesh_bearer.o(.text) for bearer_send
    mesh_beacon.o(.text) refers to aes_cmac.o(.text) for AES_CMAC
    mesh_beacon.o(.text) refers to mesh_node.o(.text) for key_state_to_tx_loop
    mesh_beacon.o(.text) refers to proxy_service.o(.text) for proxy_service_send
    mesh_beacon.o(.text) refers to mesh_common.o(.text) for mesh_inner_msg_send
    mesh_beacon.o(.text) refers to platform_misc.o(.text) for plt_rand
    mesh_beacon.o(.text) refers to platform_os.o(.text) for plt_timer_create
    mesh_beacon.o(.text) refers to friendship_lpn.o(.text) for lpn_frnd_exist_by_key
    mesh_beacon.o(.text) refers to mesh_node.o(.bss) for mesh_node
    mesh_beacon.o(.text) refers to mesh_beacon.o(.bss) for .bss
    mesh_beacon.o(.text) refers to platform_diagnose.o(.data) for mesh_log_switch
    mesh_beacon.o(.text) refers to mesh_beacon.o(.TRACE) for .TRACE
    mesh_common.o(.text) refers to system_rtl8762c.o(.text) for WDG_SystemReset
    mesh_common.o(.text) refers to gap_scheduler.o(.text) for gap_sched_handle_bt_status_msg
    mesh_common.o(.text) refers to mesh_node.o(.text) for iv_index_handle_timeout
    mesh_common.o(.text) refers to mesh_beacon.o(.text) for beacon_send
    mesh_common.o(.text) refers to mesh_service.o(.text) for mesh_service_adv_send
    mesh_common.o(.text) refers to mesh_provision.o(.text) for prov_handle_timeout
    mesh_common.o(.text) refers to provision_adv.o(.text) for pb_adv_handle_timeout
    mesh_common.o(.text) refers to mesh_transport.o(.text) for trans_handle_timeout
    mesh_common.o(.text) refers to friendship_fn.o(.text) for fn_handle_timeout
    mesh_common.o(.text) refers to friendship_lpn.o(.text) for lpn_handle_timeout
    mesh_common.o(.text) refers to provision_service.o(.text) for prov_service_handle_tx_done
    mesh_common.o(.text) refers to proxy_protocol.o(.text) for proxy_handle_timeout
    mesh_common.o(.text) refers to heartbeat.o(.text) for hb_handle_timeout
    mesh_common.o(.text) refers to mesh_bearer.o(.text) for bearer_loopback_receive
    mesh_common.o(.text) refers to mesh_flash.o(.text) for mesh_flash_restore
    mesh_common.o(.text) refers to provision_device.o(.text) for prov_init
    mesh_common.o(.text) refers to mesh_network.o(.text) for nmc_deinit
    mesh_common.o(.text) refers to mesh_rpl.o(.text) for rpl_deinit
    mesh_common.o(.text) refers to platform_os.o(.text) for plt_os_queue_create
    mesh_common.o(.text) refers to mesh_common.o(.constdata) for .constdata
    mesh_common.o(.text) refers to mesh_common.o(.bss) for .bss
    mesh_common.o(.text) refers to platform_diagnose.o(.data) for mesh_log_switch
    mesh_common.o(.text) refers to mesh_common.o(.TRACE) for .TRACE
    mesh_common.o(.text) refers to mesh_node.o(.bss) for mesh_node
    mesh_common.o(.text) refers to mesh_provision.o(.bss) for prov_ctx
    mesh_provision.o(.text) refers to platform_misc.o(.text) for plt_rand
    mesh_provision.o(.text) refers to ecc.o(.text) for ecc_validate_key
    mesh_provision.o(.text) refers to aes_cmac.o(.text) for AES_CMAC
    mesh_provision.o(.text) refers to mesh_security.o(.text) for mesh_k1
    mesh_provision.o(.text) refers to mesh_provision.o(.bss) for .bss
    mesh_provision.o(.text) refers to platform_diagnose.o(.data) for mesh_log_switch
    mesh_provision.o(.text) refers to mesh_provision.o(.TRACE) for .TRACE
    mesh_provision.o(.text) refers to ccm.o(.text) for ccm_auth_encrypt
    mesh_provision.o(.text) refers to mesh_common.o(.text) for mesh_inner_msg_send
    mesh_provision.o(.text) refers to provision_device.o(.text) for prov_disconnect
    mesh_provision.o(.text) refers to provision_adv.o(.text) for pb_adv_link_check
    mesh_provision.o(.text) refers to mesh_node.o(.bss) for mesh_node
    mesh_provision.o(.text) refers to platform_os.o(.text) for plt_timer_create
    mesh_provision.o(.text) refers to mesh_provision.o(.constdata) for .constdata
    mesh_service.o(.text) refers to gap_scheduler.o(.text) for gap_sched_link_check
    mesh_service.o(.text) refers to provision_adv.o(.text) for pb_adv_link_check
    mesh_service.o(.text) refers to mesh_node.o(.text) for net_key_valid_num
    mesh_service.o(.text) refers to mesh_bearer.o(.text) for bearer_send
    mesh_service.o(.text) refers to mesh_common.o(.text) for mesh_inner_msg_send
    mesh_service.o(.text) refers to platform_os.o(.text) for plt_timer_create
    mesh_service.o(.text) refers to platform_misc.o(.text) for plt_rand
    mesh_service.o(.text) refers to mesh_security.o(.text) for identity_hash_gen
    mesh_service.o(.text) refers to mesh_node.o(.bss) for mesh_node
    mesh_service.o(.text) refers to mesh_service.o(.constdata) for .constdata
    mesh_service.o(.text) refers to platform_diagnose.o(.data) for mesh_log_switch
    mesh_service.o(.text) refers to mesh_service.o(.bss) for .bss
    mesh_service.o(.text) refers to mesh_service.o(.TRACE) for .TRACE
    mesh_service.o(.text) refers to mesh_common.o(.bss) for pf_device_info_cb
    mesh_service.o(.text) refers to provision_server.o(.text) for prov_server_add
    mesh_service.o(.text) refers to proxy_server.o(.text) for proxy_server_add
    mesh_node.o(.text) refers to mesh_security.o(.text) for vir_addr_gen
    mesh_node.o(.text) refers to mesh_flash.o(.text) for mesh_flash_store
    mesh_node.o(.text) refers to mesh_node.o(.bss) for .bss
    mesh_node.o(.text) refers to platform_diagnose.o(.data) for mesh_log_switch
    mesh_node.o(.text) refers to mesh_node.o(.TRACE) for .TRACE
    mesh_node.o(.text) refers to mesh_node.o(.constdata) for .constdata
    mesh_node.o(.text) refers to friendship_fn.o(.text) for fn_frnd_key_refresh
    mesh_node.o(.text) refers to friendship_lpn.o(.text) for lpn_frnd_key_refresh
    mesh_node.o(.text) refers to platform_list.o(.text) for plt_list_push
    mesh_node.o(.text) refers to configuration_server.o(.text) for cfg_server_reg
    mesh_node.o(.text) refers to platform_os.o(.text) for plt_timer_get_id
    mesh_node.o(.text) refers to mesh_common.o(.text) for mesh_inner_msg_send
    mesh_node.o(.text) refers to platform_misc.o(.text) for plt_bit_pool_get
    mesh_node.o(.text) refers to mesh_rpl.o(.bss) for mesh_rpl
    mesh_node.o(.text) refers to mesh_network.o(.text) for nmc_clear
    mesh_node.o(.text) refers to mesh_rpl.o(.text) for rpl_clear
    mesh_node.o(.text) refers to mesh_beacon.o(.text) for beacon_snb_send_via_proxy
    mesh_node.o(.text) refers to mesh_transport.o(.text) for trans_send_check
    mesh_node.o(.text) refers to gap_scheduler.o(.text) for gap_sched_params_set
    mesh_node.o(.text) refers to proxy_protocol.o(.text) for proxy_ctx_init
    mesh_node.o(.text) refers to provision_device.o(.text) for prov_init
    mesh_node.o(.text) refers to mesh_service.o(.text) for mesh_service_adv_start
    mesh_node.o(.text) refers to mesh_provision.o(.bss) for prov_ctx
    friendship_fn.o(.text) refers to gap_scheduler.o(.text) for gap_sched_task_get
    friendship_fn.o(.text) refers to mesh_node.o(.text) for mesh_msg_cfg
    friendship_fn.o(.text) refers to mesh_network.o(.text) for net_send
    friendship_fn.o(.text) refers to mesh_common.o(.text) for mesh_inner_msg_send
    friendship_fn.o(.text) refers to mesh_node.o(.bss) for mesh_node
    friendship_fn.o(.text) refers to friendship_fn.o(.bss) for .bss
    friendship_fn.o(.text) refers to platform_diagnose.o(.data) for mesh_log_switch
    friendship_fn.o(.text) refers to friendship_fn.o(.TRACE) for .TRACE
    friendship_fn.o(.text) refers to friendship_fn.o(.constdata) for .constdata
    friendship_fn.o(.text) refers to platform_os.o(.text) for plt_timer_create
    friendship_fn.o(.text) refers to platform_misc.o(.text) for plt_swap1
    provision_device.o(.text) refers to mesh_provision.o(.text) for prov_timer_restart
    provision_device.o(.text) refers to proxy_protocol.o(.text) for proxy_ctx_get_link
    provision_device.o(.text) refers to provision_service.o(.text) for prov_service_send
    provision_device.o(.text) refers to provision_adv.o(.text) for pb_adv_send
    provision_device.o(.text) refers to mesh_node.o(.text) for attn_timer_start
    provision_device.o(.text) refers to mesh_flash.o(.text) for mesh_flash_store
    provision_device.o(.text) refers to mesh_beacon.o(.text) for beacon_start
    provision_device.o(.text) refers to mesh_service.o(.text) for mesh_service_adv_start
    provision_device.o(.text) refers to platform_diagnose.o(.data) for mesh_log_switch
    provision_device.o(.text) refers to provision_device.o(.TRACE) for .TRACE
    provision_device.o(.text) refers to provision_adv.o(.bss) for pb_adv_ctx
    provision_device.o(.text) refers to provision_service.o(.data) for prov_proxy_ctx_id
    provision_device.o(.text) refers to mesh_provision.o(.bss) for prov_ctx
    provision_device.o(.text) refers to provision_device.o(.constdata) for .constdata
    provision_device.o(.text) refers to mesh_node.o(.bss) for mesh_node
    provision_device.o(.text) refers to platform_misc.o(.text) for plt_rand
    provision_device.o(.text) refers to provision_service.o(.bss) for pf_pb_gatt_cb
    mesh_flash.o(.text) refers to platform_misc.o(.text) for plt_bit_pool_get
    mesh_flash.o(.text) refers to mesh_node.o(.bss) for mesh_node
    mesh_flash.o(.text) refers to mesh_flash.o(.bss) for .bss
    mesh_flash.o(.text) refers to mesh_rpl.o(.bss) for mesh_rpl
    mesh_flash.o(.text) refers to mesh_flash.o(.constdata) for .constdata
    mesh_flash.o(.text) refers to heartbeat.o(.text) for hb_publication_get
    mesh_flash.o(.text) refers to mesh_node.o(.text) for key_state_to_new_loop
    mesh_flash.o(.text) refers to platform_diagnose.o(.data) for mesh_log_switch
    mesh_flash.o(.text) refers to mesh_flash.o(.TRACE) for .TRACE
    rtl876x_lib_cfg_int.o(i._cfg_write_to_flash) refers to rtl8762c_lib_flash.o(i.flash_sw_protect_unlock_by_addr_locked) for flash_sw_protect_unlock_by_addr_locked
    rtl876x_lib_cfg_int.o(i._cfg_write_to_flash) refers to rtl8762c_lib_flash.o(i.flash_set_block_protect_locked) for flash_set_block_protect_locked
    rtl876x_lib_cfg_int.o(i._cfg_write_to_flash) refers to rtl876x_lib_cfg_int.o(.constdata) for .constdata
    rtl876x_lib_cfg_int.o(i.cfg_add_item) refers to rtl876x_lib_cfg_int.o(i._cfg_check_header_valid) for _cfg_check_header_valid
    rtl876x_lib_cfg_int.o(i.cfg_add_item) refers to rtl876x_lib_cfg_int.o(i.cfg_find_item) for cfg_find_item
    rtl876x_lib_cfg_int.o(i.cfg_add_item) refers to rtl876x_lib_cfg_int.o(i._cfg_write_to_flash) for _cfg_write_to_flash
    rtl876x_lib_cfg_int.o(i.cfg_add_item) refers to rtl876x_lib_cfg_int.o(.constdata) for .constdata
    rtl876x_lib_cfg_int.o(i.cfg_del_item) refers to rtl876x_lib_cfg_int.o(i._cfg_check_header_valid) for _cfg_check_header_valid
    rtl876x_lib_cfg_int.o(i.cfg_del_item) refers to rtl876x_lib_cfg_int.o(i.cfg_find_item) for cfg_find_item
    rtl876x_lib_cfg_int.o(i.cfg_del_item) refers to rtl876x_lib_cfg_int.o(i._cfg_write_to_flash) for _cfg_write_to_flash
    rtl876x_lib_cfg_int.o(i.cfg_del_item) refers to rtl876x_lib_cfg_int.o(.constdata) for .constdata
    rtl876x_lib_cfg_int.o(i.cfg_find_item) refers to rtl876x_lib_cfg_int.o(i._cfg_check_header_valid) for _cfg_check_header_valid
    rtl876x_lib_efuse_int.o(i.get_efuse_logic_item_cnt) refers to rtl876x_lib_efuse_int.o(.data) for .data
    rtl876x_lib_efuse_int.o(i.write_efuse_bank_data) refers to rtl876x_lib_efuse_int.o(.data) for .data
    xtx_flash_otp.o(.ram.dataon.data) refers to rtl8762c_lib_flash.o(.ram.dataon.data) for spic_set_dr_in_ram
    xtx_flash_otp.o(.ram.dataon.data) refers to xtx_flash_otp.o(.TRACE) for .TRACE
    aes_cmac.o(.text) refers to aes_cmac.o(.data) for .data
    ecc.o(.text) refers to llshl.o(.text) for __aeabi_llsl
    ecc.o(.text) refers to llushr.o(.text) for __aeabi_llsr
    ecc.o(.text) refers to ecc.o(.constdata) for .constdata
    provision_server.o(.text) refers to provision_adv.o(.text) for pb_adv_link_check
    provision_server.o(.text) refers to proxy_protocol.o(.text) for proxy_receive
    provision_server.o(.text) refers to provision_service.o(.text) for prov_service_handle_disc
    provision_server.o(.text) refers to gap_scheduler.o(.text) for gap_sched_disc_cb_reg
    provision_server.o(.text) refers to platform_diagnose.o(.data) for mesh_log_switch
    provision_server.o(.text) refers to provision_server.o(.TRACE) for .TRACE
    provision_server.o(.text) refers to mesh_node.o(.bss) for mesh_node
    provision_server.o(.text) refers to provision_service.o(.data) for prov_proxy_ctx_id
    provision_server.o(.text) refers to provision_server.o(.bss) for .bss
    provision_server.o(.text) refers to provision_server.o(.constdata) for .constdata
    provision_server.o(.constdata) refers to provision_server.o(.text) for prov_server_write_cb
    provision_service.o(.text) refers to proxy_protocol.o(.text) for proxy_send
    provision_service.o(.text) refers to mesh_common.o(.text) for mesh_inner_msg_send
    provision_service.o(.text) refers to mesh_provision.o(.text) for prov_handle_disconnect
    provision_service.o(.text) refers to provision_service.o(.data) for .data
    provision_service.o(.text) refers to provision_service.o(.bss) for .bss
    provision_service.o(.text) refers to platform_diagnose.o(.data) for mesh_log_switch
    provision_service.o(.text) refers to provision_service.o(.TRACE) for .TRACE
    proxy_server.o(.text) refers to proxy_protocol.o(.text) for proxy_receive
    proxy_server.o(.text) refers to mesh_beacon.o(.text) for beacon_snb_send_via_proxy
    proxy_server.o(.text) refers to proxy_service.o(.text) for proxy_service_handle_disc
    proxy_server.o(.text) refers to gap_scheduler.o(.text) for gap_sched_disc_cb_reg
    proxy_server.o(.text) refers to platform_diagnose.o(.data) for mesh_log_switch
    proxy_server.o(.text) refers to proxy_server.o(.TRACE) for .TRACE
    proxy_server.o(.text) refers to mesh_node.o(.bss) for mesh_node
    proxy_server.o(.text) refers to proxy_service.o(.data) for proxy_ctx_id
    proxy_server.o(.text) refers to proxy_server.o(.bss) for .bss
    proxy_server.o(.text) refers to proxy_server.o(.constdata) for .constdata
    proxy_server.o(.constdata) refers to proxy_server.o(.text) for proxy_server_write_cb
    proxy_service.o(.text) refers to proxy_protocol.o(.text) for proxy_filter
    proxy_service.o(.text) refers to mesh_network.o(.text) for net_receive
    proxy_service.o(.text) refers to mesh_beacon.o(.text) for beacon_receive
    proxy_service.o(.text) refers to proxy_service.o(.data) for .data
    mesh_transport.o(.text) refers to platform_os.o(.text) for plt_timer_get_id
    mesh_transport.o(.text) refers to mesh_common.o(.text) for mesh_inner_msg_send
    mesh_transport.o(.text) refers to platform_misc.o(.text) for plt_bit_pool_count
    mesh_transport.o(.text) refers to mesh_node.o(.text) for frnd_key_check
    mesh_transport.o(.text) refers to gap_scheduler.o(.text) for gap_sched_task_get
    mesh_transport.o(.text) refers to mesh_network.o(.text) for net_send
    mesh_transport.o(.text) refers to mesh_transport.o(.bss) for .bss
    mesh_transport.o(.text) refers to mesh_node.o(.bss) for mesh_node
    mesh_transport.o(.text) refers to platform_diagnose.o(.data) for mesh_log_switch
    mesh_transport.o(.text) refers to mesh_transport.o(.TRACE) for .TRACE
    mesh_transport.o(.text) refers to mesh_security.o(.text) for app_nonce_gen
    mesh_transport.o(.text) refers to friendship_lpn.o(.text) for lpn_frnd_key_get
    mesh_transport.o(.text) refers to mesh_rpl.o(.text) for rpl_check
    mesh_transport.o(.text) refers to mesh_access.o(.text) for access_dispatch
    mesh_transport.o(.text) refers to mesh_transport.o(.constdata) for .constdata
    mesh_transport.o(.text) refers to platform_list.o(.text) for plt_list_pop
    mesh_transport.o(.text) refers to heartbeat.o(.text) for hb_handle_msg
    mesh_transport.o(.text) refers to transport_ping.o(.text) for trans_handle_ping_pong_msg
    mesh_transport.o(.text) refers to friendship_fn.o(.text) for fn_handle_msg
    mesh_network.o(.text) refers to platform_list.o(.text) for plt_list_push
    mesh_network.o(.text) refers to gap_scheduler.o(.text) for gap_sched_task_free
    mesh_network.o(.text) refers to mesh_node.o(.text) for key_state_to_tx_loop
    mesh_network.o(.text) refers to mesh_security.o(.text) for net_nonce_gen
    mesh_network.o(.text) refers to mesh_bearer.o(.text) for bearer_send_mesh_msg
    mesh_network.o(.text) refers to friendship_lpn.o(.text) for lpn_frnd_exist_by_key
    mesh_network.o(.text) refers to mesh_network.o(.bss) for .bss
    mesh_network.o(.text) refers to mesh_node.o(.bss) for mesh_node
    mesh_network.o(.text) refers to mesh_network.o(.constdata) for .constdata
    mesh_network.o(.text) refers to platform_diagnose.o(.data) for mesh_log_switch
    mesh_network.o(.text) refers to mesh_network.o(.TRACE) for .TRACE
    mesh_network.o(.text) refers to proxy_protocol.o(.text) for proxy_filter_update
    mesh_network.o(.text) refers to friendship_fn.o(.text) for fn_get_lpn1
    mesh_network.o(.text) refers to mesh_transport.o(.text) for trans_receive
    mesh_security.o(.text) refers to aes_cmac.o(.text) for AES_CMAC
    mesh_security.o(.text) refers to platform_diagnose.o(.data) for mesh_log_switch
    mesh_security.o(.text) refers to mesh_security.o(.TRACE) for .TRACE
    mesh_security.o(.text) refers to mesh_node.o(.bss) for mesh_node
    mesh_security.o(.text) refers to ccm.o(.text) for ccm_auth_encrypt
    mesh_rpl.o(.text) refers to mesh_flash.o(.text) for mesh_flash_store
    mesh_rpl.o(.text) refers to mesh_rpl.o(.bss) for .bss
    mesh_rpl.o(.text) refers to mesh_rpl.o(.constdata) for .constdata
    mesh_rpl.o(.text) refers to platform_diagnose.o(.data) for mesh_log_switch
    mesh_rpl.o(.text) refers to mesh_rpl.o(.TRACE) for .TRACE
    mesh_rpl.o(.text) refers to mesh_node.o(.bss) for mesh_node
    provision_adv.o(.text) refers to mesh_common.o(.text) for mesh_inner_msg_send
    provision_adv.o(.text) refers to gap_scheduler.o(.text) for gap_sched_task_get
    provision_adv.o(.text) refers to mesh_bearer.o(.text) for bearer_send
    provision_adv.o(.text) refers to crc8ets.o(.text) for crc8EtsGen
    provision_adv.o(.text) refers to platform_misc.o(.text) for plt_rand
    provision_adv.o(.text) refers to provision_adv.o(.bss) for .bss
    provision_adv.o(.text) refers to platform_diagnose.o(.data) for mesh_log_switch
    provision_adv.o(.text) refers to provision_adv.o(.TRACE) for .TRACE
    provision_adv.o(.text) refers to mesh_node.o(.bss) for mesh_node
    provision_adv.o(.text) refers to proxy_protocol.o(.text) for proxy_ctx_get_link
    provision_adv.o(.text) refers to platform_os.o(.text) for plt_timer_create
    provision_adv.o(.text) refers to provision_service.o(.data) for prov_proxy_ctx_id
    provision_adv.o(.text) refers to provision_adv.o(.constdata) for .constdata
    proxy_protocol.o(.text) refers to mesh_node.o(.text) for mesh_seq_use
    proxy_protocol.o(.text) refers to proxy_protocol.o(.bss) for .bss
    proxy_protocol.o(.text) refers to proxy_protocol.o(.constdata) for .constdata
    proxy_protocol.o(.text) refers to platform_diagnose.o(.data) for mesh_log_switch
    proxy_protocol.o(.text) refers to proxy_protocol.o(.TRACE) for .TRACE
    proxy_protocol.o(.text) refers to mesh_node.o(.bss) for mesh_node
    proxy_protocol.o(.text) refers to mesh_security.o(.text) for proxy_nonce_gen
    proxy_protocol.o(.text) refers to proxy_service.o(.text) for proxy_service_send
    proxy_protocol.o(.text) refers to mesh_network.o(.text) for nmc_check
    proxy_protocol.o(.text) refers to platform_os.o(.text) for plt_timer_get_id
    proxy_protocol.o(.text) refers to mesh_common.o(.text) for mesh_inner_msg_send
    friendship_lpn.o(.text) refers to gap_scheduler.o(.text) for gap_sched_task_get
    friendship_lpn.o(.text) refers to mesh_node.o(.text) for mesh_msg_cfg
    friendship_lpn.o(.text) refers to mesh_network.o(.text) for net_send
    friendship_lpn.o(.text) refers to friendship_lpn.o(.bss) for .bss
    friendship_lpn.o(.text) refers to platform_diagnose.o(.data) for mesh_log_switch
    friendship_lpn.o(.text) refers to friendship_lpn.o(.TRACE) for .TRACE
    friendship_lpn.o(.text) refers to mesh_node.o(.bss) for mesh_node
    friendship_lpn.o(.text) refers to mesh_common.o(.text) for mesh_inner_msg_send
    friendship_lpn.o(.text) refers to heartbeat.o(.text) for hb_msg_send
    friendship_lpn.o(.text) refers to platform_os.o(.text) for plt_timer_is_active
    friendship_lpn.o(.text) refers to platform_misc.o(.text) for plt_rand
    friendship_lpn.o(.text) refers to friendship_lpn.o(.constdata) for .constdata
    heartbeat.o(.text) refers to mesh_node.o(.text) for net_key_index_from_global
    heartbeat.o(.text) refers to mesh_transport.o(.text) for trans_hb
    heartbeat.o(.text) refers to friendship_lpn.o(.text) for lpn_frnd_exist
    heartbeat.o(.text) refers to mesh_common.o(.text) for mesh_inner_msg_send
    heartbeat.o(.text) refers to platform_os.o(.text) for plt_timer_create
    heartbeat.o(.text) refers to heartbeat.o(.bss) for .bss
    heartbeat.o(.text) refers to mesh_node.o(.bss) for mesh_node
    heartbeat.o(.text) refers to platform_diagnose.o(.data) for mesh_log_switch
    heartbeat.o(.text) refers to heartbeat.o(.TRACE) for .TRACE
    heartbeat.o(.text) refers to heartbeat.o(.constdata) for .constdata
    configuration_server.o(.text) refers to mesh_access.o(.text) for access_cfg
    configuration_server.o(.text) refers to configuration_server.o(.bss) for .bss
    configuration_server.o(.text) refers to configuration_server.o(.data) for .data
    configuration_server.o(.text) refers to configuration_server.o(.constdata) for .constdata
    configuration_server.o(.text) refers to mesh_flash.o(.text) for mesh_flash_store
    configuration_server.o(.text) refers to mesh_node.o(.text) for mesh_element_get_by_addr
    configuration_server.o(.text) refers to mesh_node.o(.bss) for mesh_node
    configuration_server.o(.text) refers to strncmp.o(.text) for strncmp
    configuration_server.o(.text) refers to friendship_lpn.o(.text) for lpn_frnd_key_upd
    configuration_server.o(.text) refers to friendship_fn.o(.text) for fn_frnd_key_upd
    configuration_server.o(.text) refers to heartbeat.o(.text) for hb_publication_get
    configuration_server.o(.text) refers to mesh_service.o(.text) for mesh_service_identity_adv_start
    configuration_server.o(.text) refers to platform_misc.o(.text) for plt_bit_pool_get
    configuration_server.o(.text) refers to mesh_beacon.o(.text) for beacon_start
    configuration_server.o(.text) refers to proxy_protocol.o(.text) for proxy_ctx_get_link
    configuration_server.o(.text) refers to proxy_service.o(.data) for proxy_ctx_id
    configuration_server.o(.text) refers to platform_diagnose.o(.data) for mesh_log_switch
    configuration_server.o(.text) refers to configuration_server.o(.TRACE) for .TRACE
    crc8ets.o(.text) refers to crc8ets.o(.constdata) for .constdata
    transport_ping.o(.text) refers to gap_scheduler.o(.text) for gap_sched_task_get
    transport_ping.o(.text) refers to mesh_node.o(.text) for mesh_msg_cfg
    transport_ping.o(.text) refers to mesh_network.o(.text) for net_send
    transport_ping.o(.text) refers to mesh_node.o(.bss) for mesh_node
    transport_ping.o(.text) refers to platform_diagnose.o(.data) for mesh_log_switch
    transport_ping.o(.text) refers to transport_ping.o(.bss) for .bss
    transport_ping.o(.text) refers to transport_ping.o(.TRACE) for .TRACE
    __2sprintf.o(.text) refers to _printf_char_common.o(.text) for _printf_char_common
    __2sprintf.o(.text) refers to _sputc.o(.text) for _sputc
    noretval__2sprintf.o(.text) refers to _printf_char_common.o(.text) for _printf_char_common
    noretval__2sprintf.o(.text) refers to _sputc.o(.text) for _sputc
    __printf.o(.text) refers to _printf_percent.o(.ARM.Collect$$_printf_percent$$00000000) for _printf_percent
    _printf_hex_ll.o(.text) refers to _printf_intcommon.o(.text) for _printf_int_common
    _printf_hex_ll.o(.text) refers to _printf_hex_ll.o(.constdata) for .constdata
    _printf_hex_int.o(.text) refers to _printf_intcommon.o(.text) for _printf_int_common
    _printf_hex_int.o(.text) refers to _printf_hex_int.o(.constdata) for .constdata
    _printf_hex_int_ll.o(.text) refers to _printf_intcommon.o(.text) for _printf_int_common
    _printf_hex_int_ll.o(.text) refers to _printf_hex_int_ll.o(.constdata) for .constdata
    _printf_hex_ptr.o(.text) refers to _printf_intcommon.o(.text) for _printf_int_common
    _printf_hex_ptr.o(.text) refers to _printf_hex_ptr.o(.constdata) for .constdata
    _printf_hex_int_ptr.o(.text) refers to _printf_intcommon.o(.text) for _printf_int_common
    _printf_hex_int_ptr.o(.text) refers to _printf_hex_int_ptr.o(.constdata) for .constdata
    _printf_hex_ll_ptr.o(.text) refers to _printf_intcommon.o(.text) for _printf_int_common
    _printf_hex_ll_ptr.o(.text) refers to _printf_hex_ll_ptr.o(.constdata) for .constdata
    _printf_hex_int_ll_ptr.o(.text) refers to _printf_intcommon.o(.text) for _printf_int_common
    _printf_hex_int_ll_ptr.o(.text) refers to _printf_hex_int_ll_ptr.o(.constdata) for .constdata
    __printf_flags.o(.text) refers to _printf_percent.o(.ARM.Collect$$_printf_percent$$00000000) for _printf_percent
    __printf_flags.o(.text) refers to __printf_flags.o(.constdata) for .constdata
    __printf_ss.o(.text) refers to _printf_percent.o(.ARM.Collect$$_printf_percent$$00000000) for _printf_percent
    __printf_flags_ss.o(.text) refers to _printf_percent.o(.ARM.Collect$$_printf_percent$$00000000) for _printf_percent
    __printf_flags_ss.o(.text) refers to __printf_flags_ss.o(.constdata) for .constdata
    __printf_wp.o(.text) refers to __printf_wp.o(i._is_digit) for _is_digit
    __printf_wp.o(.text) refers to _printf_percent.o(.ARM.Collect$$_printf_percent$$00000000) for _printf_percent
    __printf_flags_wp.o(.text) refers to __printf_wp.o(i._is_digit) for _is_digit
    __printf_flags_wp.o(.text) refers to _printf_percent.o(.ARM.Collect$$_printf_percent$$00000000) for _printf_percent
    __printf_flags_wp.o(.text) refers to __printf_flags_wp.o(.constdata) for .constdata
    __printf_ss_wp.o(.text) refers to __printf_wp.o(i._is_digit) for _is_digit
    __printf_ss_wp.o(.text) refers to _printf_percent.o(.ARM.Collect$$_printf_percent$$00000000) for _printf_percent
    __printf_flags_ss_wp.o(.text) refers to __printf_wp.o(i._is_digit) for _is_digit
    __printf_flags_ss_wp.o(.text) refers to _printf_percent.o(.ARM.Collect$$_printf_percent$$00000000) for _printf_percent
    __printf_flags_ss_wp.o(.text) refers to __printf_flags_ss_wp.o(.constdata) for .constdata
    _printf_x.o(.ARM.Collect$$_printf_percent$$0000000C) refers (Weak) to _printf_hex_int.o(.text) for _printf_int_hex
    _printf_percent.o(.ARM.Collect$$_printf_percent$$00000000) refers (Special) to _printf_percent_end.o(.ARM.Collect$$_printf_percent$$00000017) for _printf_percent_end
    rand.o(.emb_text) refers (Special) to libinit2.o(.ARM.Collect$$libinit$$0000000D) for __rt_lib_init_rand_2
    rand.o(.emb_text) refers to rand.o(.text) for _rand_init
    rand.o(.emb_text) refers to rand.o(.bss) for _random_number_data
    rand.o(.text) refers (Special) to libinit2.o(.ARM.Collect$$libinit$$0000000D) for __rt_lib_init_rand_2
    rand.o(.text) refers to rand.o(.bss) for .bss
    rand.o(.bss) refers (Special) to libinit2.o(.ARM.Collect$$libinit$$0000000D) for __rt_lib_init_rand_2
    __main.o(!!!main) refers to __rtentry.o(.ARM.Collect$$rtentry$$00000000) for __rt_entry
    d2f.o(x$fpl$d2f) refers (Special) to usenofp.o(x$fpl$usenofp) for __I$use$fp
    d2f.o(x$fpl$d2f) refers to fretinf.o(x$fpl$fretinf) for __fpl_fretinf
    d2f.o(x$fpl$d2f) refers to dnaninf.o(x$fpl$dnaninf) for __fpl_dnaninf
    daddsub_clz.o(x$fpl$dadd) refers (Special) to usenofp.o(x$fpl$usenofp) for __I$use$fp
    daddsub_clz.o(x$fpl$dadd) refers to daddsub_clz.o(x$fpl$dsub) for _dsub1
    daddsub_clz.o(x$fpl$dadd) refers to dretinf.o(x$fpl$dretinf) for __fpl_dretinf
    daddsub_clz.o(x$fpl$dadd) refers to dnaninf.o(x$fpl$dnaninf) for __fpl_dnaninf
    daddsub_clz.o(x$fpl$drsb) refers (Special) to usenofp.o(x$fpl$usenofp) for __I$use$fp
    daddsub_clz.o(x$fpl$drsb) refers to daddsub_clz.o(x$fpl$dadd) for _dadd1
    daddsub_clz.o(x$fpl$drsb) refers to daddsub_clz.o(x$fpl$dsub) for _dsub1
    daddsub_clz.o(x$fpl$dsub) refers (Special) to usenofp.o(x$fpl$usenofp) for __I$use$fp
    daddsub_clz.o(x$fpl$dsub) refers to daddsub_clz.o(x$fpl$dadd) for _dadd1
    daddsub_clz.o(x$fpl$dsub) refers to dnaninf.o(x$fpl$dnaninf) for __fpl_dnaninf
    ddiv.o(x$fpl$drdiv) refers (Special) to usenofp.o(x$fpl$usenofp) for __I$use$fp
    ddiv.o(x$fpl$drdiv) refers to ddiv.o(x$fpl$ddiv) for ddiv_entry
    ddiv.o(x$fpl$ddiv) refers (Special) to usenofp.o(x$fpl$usenofp) for __I$use$fp
    ddiv.o(x$fpl$ddiv) refers to dretinf.o(x$fpl$dretinf) for __fpl_dretinf
    ddiv.o(x$fpl$ddiv) refers to dnaninf.o(x$fpl$dnaninf) for __fpl_dnaninf
    dfix.o(x$fpl$dfix) refers (Special) to usenofp.o(x$fpl$usenofp) for __I$use$fp
    dfix.o(x$fpl$dfix) refers to dnaninf.o(x$fpl$dnaninf) for __fpl_dnaninf
    dfix.o(x$fpl$dfixr) refers (Special) to usenofp.o(x$fpl$usenofp) for __I$use$fp
    dfix.o(x$fpl$dfixr) refers to dnaninf.o(x$fpl$dnaninf) for __fpl_dnaninf
    dfixu.o(x$fpl$dfixu) refers (Special) to usenofp.o(x$fpl$usenofp) for __I$use$fp
    dfixu.o(x$fpl$dfixu) refers to dnaninf.o(x$fpl$dnaninf) for __fpl_dnaninf
    dfixu.o(x$fpl$dfixur) refers (Special) to usenofp.o(x$fpl$usenofp) for __I$use$fp
    dfixu.o(x$fpl$dfixur) refers to dnaninf.o(x$fpl$dnaninf) for __fpl_dnaninf
    dflt_clz.o(x$fpl$dfltu) refers (Special) to usenofp.o(x$fpl$usenofp) for __I$use$fp
    dflt_clz.o(x$fpl$dflt) refers (Special) to usenofp.o(x$fpl$usenofp) for __I$use$fp
    dflt_clz.o(x$fpl$dfltn) refers (Special) to usenofp.o(x$fpl$usenofp) for __I$use$fp
    dmul.o(x$fpl$dmul) refers (Special) to usenofp.o(x$fpl$usenofp) for __I$use$fp
    dmul.o(x$fpl$dmul) refers to dretinf.o(x$fpl$dretinf) for __fpl_dretinf
    dmul.o(x$fpl$dmul) refers to dnaninf.o(x$fpl$dnaninf) for __fpl_dnaninf
    f2d.o(x$fpl$f2d) refers (Special) to usenofp.o(x$fpl$usenofp) for __I$use$fp
    f2d.o(x$fpl$f2d) refers to fnaninf.o(x$fpl$fnaninf) for __fpl_fnaninf
    f2d.o(x$fpl$f2d) refers to dretinf.o(x$fpl$dretinf) for __fpl_dretinf
    ceil.o(i.__hardfp_ceil) refers (Special) to usenofp.o(x$fpl$usenofp) for __I$use$fp
    ceil.o(i.__hardfp_ceil) refers to daddsub_clz.o(x$fpl$dadd) for __aeabi_dadd
    ceil.o(i.__hardfp_ceil) refers to drleqf.o(x$fpl$drleqf) for __aeabi_cdrcmple
    ceil.o(i.__hardfp_ceil) refers to daddsub_clz.o(x$fpl$drsb) for __aeabi_drsub
    ceil.o(i.__softfp_ceil) refers (Special) to usenofp.o(x$fpl$usenofp) for __I$use$fp
    ceil.o(i.__softfp_ceil) refers to ceil.o(i.__hardfp_ceil) for __hardfp_ceil
    ceil.o(i.ceil) refers (Special) to usenofp.o(x$fpl$usenofp) for __I$use$fp
    ceil.o(i.ceil) refers to ceil.o(i.__hardfp_ceil) for __hardfp_ceil
    sqrt.o(i.__hardfp_sqrt) refers (Special) to usenofp.o(x$fpl$usenofp) for __I$use$fp
    sqrt.o(i.__hardfp_sqrt) refers to dsqrt_umaal.o(x$fpl$dsqrt) for _dsqrt
    sqrt.o(i.__hardfp_sqrt) refers to _rserrno.o(.text) for __set_errno
    sqrt.o(i.__softfp_sqrt) refers (Special) to usenofp.o(x$fpl$usenofp) for __I$use$fp
    sqrt.o(i.__softfp_sqrt) refers to dsqrt_umaal.o(x$fpl$dsqrt) for _dsqrt
    sqrt.o(i.__softfp_sqrt) refers to _rserrno.o(.text) for __set_errno
    sqrt.o(i.sqrt) refers (Special) to usenofp.o(x$fpl$usenofp) for __I$use$fp
    sqrt.o(i.sqrt) refers to dsqrt_umaal.o(x$fpl$dsqrt) for _dsqrt
    sqrt.o(i.sqrt) refers to _rserrno.o(.text) for __set_errno
    sqrt_x.o(i.____hardfp_sqrt$lsc) refers (Special) to usenofp.o(x$fpl$usenofp) for __I$use$fp
    sqrt_x.o(i.____hardfp_sqrt$lsc) refers to dleqf.o(x$fpl$dleqf) for __aeabi_cdcmple
    sqrt_x.o(i.____hardfp_sqrt$lsc) refers to _rserrno.o(.text) for __set_errno
    sqrt_x.o(i.____hardfp_sqrt$lsc) refers to dsqrt_umaal.o(x$fpl$dsqrt) for _dsqrt
    sqrt_x.o(i.____softfp_sqrt$lsc) refers (Special) to usenofp.o(x$fpl$usenofp) for __I$use$fp
    sqrt_x.o(i.____softfp_sqrt$lsc) refers to dleqf.o(x$fpl$dleqf) for __aeabi_cdcmple
    sqrt_x.o(i.____softfp_sqrt$lsc) refers to _rserrno.o(.text) for __set_errno
    sqrt_x.o(i.____softfp_sqrt$lsc) refers to dsqrt_umaal.o(x$fpl$dsqrt) for _dsqrt
    sqrt_x.o(i.__sqrt$lsc) refers (Special) to usenofp.o(x$fpl$usenofp) for __I$use$fp
    sqrt_x.o(i.__sqrt$lsc) refers to dleqf.o(x$fpl$dleqf) for __aeabi_cdcmple
    sqrt_x.o(i.__sqrt$lsc) refers to _rserrno.o(.text) for __set_errno
    sqrt_x.o(i.__sqrt$lsc) refers to dsqrt_umaal.o(x$fpl$dsqrt) for _dsqrt
    __rtentry.o(.ARM.Collect$$rtentry$$00000000) refers (Special) to __rtentry2.o(.ARM.Collect$$rtentry$$0000000A) for __rt_entry_li
    __rtentry.o(.ARM.Collect$$rtentry$$00000000) refers (Special) to __rtentry2.o(.ARM.Collect$$rtentry$$0000000D) for __rt_entry_main
    __rtentry.o(.ARM.Collect$$rtentry$$00000000) refers (Special) to __rtentry2.o(.ARM.Collect$$rtentry$$0000000C) for __rt_entry_postli_1
    __rtentry.o(.ARM.Collect$$rtentry$$00000000) refers (Special) to __rtentry2.o(.ARM.Collect$$rtentry$$00000009) for __rt_entry_postsh_1
    __rtentry.o(.ARM.Collect$$rtentry$$00000000) refers (Special) to __rtentry2.o(.ARM.Collect$$rtentry$$00000002) for __rt_entry_presh_1
    __rtentry.o(.ARM.Collect$$rtentry$$00000000) refers (Special) to __rtentry4.o(.ARM.Collect$$rtentry$$00000004) for __rt_entry_sh
    _rserrno.o(.text) refers to rt_errno_addr.o(.text) for __aeabi_errno_addr
    _printf_intcommon.o(.text) refers (Weak) to _printf_pad.o(.text) for _printf_pre_padding
    _printf_intcommon.o(.text) refers (Weak) to _printf_pad.o(.text) for _printf_pre_padding
    _printf_intcommon.o(.text) refers (Weak) to _printf_pad.o(.text) for _printf_post_padding
    _printf_char_common.o(.text) refers to __printf_flags_wp.o(.text) for __printf
    libinit2.o(.ARM.Collect$$libinit$$00000001) refers to fpinit.o(x$fpl$fpinit) for _fp_init
    libinit2.o(.ARM.Collect$$libinit$$0000000D) refers (Weak) to rand.o(.text) for _rand_init
    libinit2.o(.ARM.Collect$$libinit$$00000010) refers to libinit2.o(.ARM.Collect$$libinit$$0000000F) for .ARM.Collect$$libinit$$0000000F
    libinit2.o(.ARM.Collect$$libinit$$00000012) refers to libinit2.o(.ARM.Collect$$libinit$$0000000F) for .ARM.Collect$$libinit$$0000000F
    libinit2.o(.ARM.Collect$$libinit$$00000014) refers to libinit2.o(.ARM.Collect$$libinit$$0000000F) for .ARM.Collect$$libinit$$0000000F
    libinit2.o(.ARM.Collect$$libinit$$00000016) refers to libinit2.o(.ARM.Collect$$libinit$$0000000F) for .ARM.Collect$$libinit$$0000000F
    libinit2.o(.ARM.Collect$$libinit$$00000018) refers to libinit2.o(.ARM.Collect$$libinit$$0000000F) for .ARM.Collect$$libinit$$0000000F
    libinit2.o(.ARM.Collect$$libinit$$00000026) refers to argv_veneer.o(.emb_text) for __ARM_argv_veneer
    libinit2.o(.ARM.Collect$$libinit$$00000027) refers to argv_veneer.o(.emb_text) for __ARM_argv_veneer
    dleqf.o(x$fpl$dleqf) refers (Special) to usenofp.o(x$fpl$usenofp) for __I$use$fp
    dleqf.o(x$fpl$dleqf) refers to dnaninf.o(x$fpl$dnaninf) for __fpl_dnaninf
    dleqf.o(x$fpl$dleqf) refers to dcmpi.o(x$fpl$dcmpinf) for __fpl_dcmp_Inf
    dnaninf.o(x$fpl$dnaninf) refers (Special) to usenofp.o(x$fpl$usenofp) for __I$use$fp
    dretinf.o(x$fpl$dretinf) refers (Special) to usenofp.o(x$fpl$usenofp) for __I$use$fp
    drleqf.o(x$fpl$drleqf) refers (Special) to usenofp.o(x$fpl$usenofp) for __I$use$fp
    drleqf.o(x$fpl$drleqf) refers to dleqf.o(x$fpl$dleqf) for __fpl_dcmple_InfNaN
    dsqrt_umaal.o(x$fpl$dsqrt) refers (Special) to usenofp.o(x$fpl$usenofp) for __I$use$fp
    dsqrt_umaal.o(x$fpl$dsqrt) refers to dnaninf.o(x$fpl$dnaninf) for __fpl_dnaninf
    fnaninf.o(x$fpl$fnaninf) refers (Special) to usenofp.o(x$fpl$usenofp) for __I$use$fp
    fretinf.o(x$fpl$fretinf) refers (Special) to usenofp.o(x$fpl$usenofp) for __I$use$fp
    __rtentry2.o(.ARM.Collect$$rtentry$$00000008) refers to boardinit2.o(.text) for _platform_post_stackheap_init
    __rtentry2.o(.ARM.Collect$$rtentry$$0000000A) refers to libinit.o(.ARM.Collect$$libinit$$00000000) for __rt_lib_init
    __rtentry2.o(.ARM.Collect$$rtentry$$0000000B) refers to boardinit3.o(.text) for _platform_post_lib_init
    __rtentry2.o(.ARM.Collect$$rtentry$$0000000D) refers to main.o(.text) for main
    __rtentry2.o(.ARM.exidx) refers to __rtentry2.o(.ARM.Collect$$rtentry$$00000001) for .ARM.Collect$$rtentry$$00000001
    __rtentry2.o(.ARM.exidx) refers to __rtentry2.o(.ARM.Collect$$rtentry$$00000008) for .ARM.Collect$$rtentry$$00000008
    __rtentry2.o(.ARM.exidx) refers to __rtentry2.o(.ARM.Collect$$rtentry$$0000000A) for .ARM.Collect$$rtentry$$0000000A
    __rtentry2.o(.ARM.exidx) refers to __rtentry2.o(.ARM.Collect$$rtentry$$0000000B) for .ARM.Collect$$rtentry$$0000000B
    __rtentry2.o(.ARM.exidx) refers to __rtentry2.o(.ARM.Collect$$rtentry$$0000000D) for .ARM.Collect$$rtentry$$0000000D
    __rtentry4.o(.ARM.Collect$$rtentry$$00000004) refers to startup_rtl8762c.o(.text) for __user_setup_stackheap
    __rtentry4.o(.ARM.exidx) refers to __rtentry4.o(.ARM.Collect$$rtentry$$00000004) for .ARM.Collect$$rtentry$$00000004
    rt_errno_addr.o(.text) refers to rt_errno_addr.o(.bss) for __aeabi_errno_addr_data
    rt_errno_addr_intlibspace.o(.text) refers to libspace.o(.bss) for __libspace_start
    argv_veneer.o(.emb_text) refers to no_argv.o(.text) for __ARM_get_argv
    dcmpi.o(x$fpl$dcmpinf) refers (Special) to usenofp.o(x$fpl$usenofp) for __I$use$fp
    libspace.o(.text) refers to libspace.o(.bss) for __libspace_start
    _get_argv_nomalloc.o(.text) refers (Special) to hrguard.o(.text) for __heap_region$guard
    _get_argv_nomalloc.o(.text) refers to defsig_rtmem_outer.o(.text) for __rt_SIGRTMEM
    _get_argv_nomalloc.o(.text) refers to sys_command.o(.text) for _sys_command_string
    libinit.o(.ARM.Collect$$libinit$$00000000) refers (Special) to libinit2.o(.ARM.Collect$$libinit$$0000002E) for __rt_lib_init_alloca_1
    libinit.o(.ARM.Collect$$libinit$$00000000) refers (Special) to libinit2.o(.ARM.Collect$$libinit$$0000002C) for __rt_lib_init_argv_1
    libinit.o(.ARM.Collect$$libinit$$00000000) refers (Special) to libinit2.o(.ARM.Collect$$libinit$$0000001B) for __rt_lib_init_atexit_1
    libinit.o(.ARM.Collect$$libinit$$00000000) refers (Special) to libinit2.o(.ARM.Collect$$libinit$$00000021) for __rt_lib_init_clock_1
    libinit.o(.ARM.Collect$$libinit$$00000000) refers (Special) to libinit2.o(.ARM.Collect$$libinit$$00000032) for __rt_lib_init_cpp_1
    libinit.o(.ARM.Collect$$libinit$$00000000) refers (Special) to libinit2.o(.ARM.Collect$$libinit$$00000030) for __rt_lib_init_exceptions_1
    libinit.o(.ARM.Collect$$libinit$$00000000) refers (Special) to libinit2.o(.ARM.Collect$$libinit$$00000001) for __rt_lib_init_fp_1
    libinit.o(.ARM.Collect$$libinit$$00000000) refers (Special) to libinit2.o(.ARM.Collect$$libinit$$0000001F) for __rt_lib_init_fp_trap_1
    libinit.o(.ARM.Collect$$libinit$$00000000) refers (Special) to libinit2.o(.ARM.Collect$$libinit$$00000023) for __rt_lib_init_getenv_1
    libinit.o(.ARM.Collect$$libinit$$00000000) refers (Special) to libinit2.o(.ARM.Collect$$libinit$$0000000A) for __rt_lib_init_heap_1
    libinit.o(.ARM.Collect$$libinit$$00000000) refers (Special) to libinit2.o(.ARM.Collect$$libinit$$00000011) for __rt_lib_init_lc_collate_1
    libinit.o(.ARM.Collect$$libinit$$00000000) refers (Special) to libinit2.o(.ARM.Collect$$libinit$$00000013) for __rt_lib_init_lc_ctype_1
    libinit.o(.ARM.Collect$$libinit$$00000000) refers (Special) to libinit2.o(.ARM.Collect$$libinit$$00000015) for __rt_lib_init_lc_monetary_1
    libinit.o(.ARM.Collect$$libinit$$00000000) refers (Special) to libinit2.o(.ARM.Collect$$libinit$$00000017) for __rt_lib_init_lc_numeric_1
    libinit.o(.ARM.Collect$$libinit$$00000000) refers (Special) to libinit2.o(.ARM.Collect$$libinit$$00000019) for __rt_lib_init_lc_time_1
    libinit.o(.ARM.Collect$$libinit$$00000000) refers (Special) to libinit2.o(.ARM.Collect$$libinit$$00000004) for __rt_lib_init_preinit_1
    libinit.o(.ARM.Collect$$libinit$$00000000) refers (Special) to libinit2.o(.ARM.Collect$$libinit$$0000000E) for __rt_lib_init_rand_1
    libinit.o(.ARM.Collect$$libinit$$00000000) refers (Special) to libinit2.o(.ARM.Collect$$libinit$$00000033) for __rt_lib_init_return
    libinit.o(.ARM.Collect$$libinit$$00000000) refers (Special) to libinit2.o(.ARM.Collect$$libinit$$0000001D) for __rt_lib_init_signal_1
    libinit.o(.ARM.Collect$$libinit$$00000000) refers (Special) to libinit2.o(.ARM.Collect$$libinit$$00000025) for __rt_lib_init_stdio_1
    libinit.o(.ARM.Collect$$libinit$$00000000) refers (Special) to libinit2.o(.ARM.Collect$$libinit$$0000000C) for __rt_lib_init_user_alloc_1
    sys_command.o(.text) refers (Special) to use_no_semi.o(.text) for __I$use$semihosting
    sys_command.o(.text) refers (Special) to indicate_semi.o(.text) for __semihosting_library_function
    defsig_rtmem_outer.o(.text) refers to defsig_rtmem_inner.o(.text) for __rt_SIGRTMEM_inner
    defsig_rtmem_outer.o(.text) refers to defsig_exit.o(.text) for __sig_exit
    defsig_rtmem_formal.o(.text) refers to rt_raise.o(.text) for __rt_raise
    rt_raise.o(.text) refers to __raise.o(.text) for __raise
    rt_raise.o(.text) refers to sys_exit.o(.text) for _sys_exit
    defsig_exit.o(.text) refers to sys_exit.o(.text) for _sys_exit
    defsig_rtmem_inner.o(.text) refers to defsig_general.o(.text) for __default_signal_display
    sys_exit.o(.text) refers (Special) to use_no_semi.o(.text) for __I$use$semihosting
    sys_exit.o(.text) refers (Special) to indicate_semi.o(.text) for __semihosting_library_function
    __raise.o(.text) refers to defsig.o(CL$$defsig) for __default_signal_handler
    defsig_general.o(.text) refers to sys_wrch.o(.text) for _ttywrch
    sys_wrch.o(.text) refers (Special) to use_no_semi.o(.text) for __I$use$semihosting
    sys_wrch.o(.text) refers (Special) to indicate_semi.o(.text) for __semihosting_library_function
    defsig.o(CL$$defsig) refers to defsig_rtmem_inner.o(.text) for __rt_SIGRTMEM_inner
    defsig_abrt_inner.o(.text) refers to defsig_general.o(.text) for __default_signal_display
    defsig_fpe_inner.o(.text) refers to defsig_general.o(.text) for __default_signal_display
    defsig_rtred_inner.o(.text) refers to defsig_general.o(.text) for __default_signal_display
    defsig_stak_inner.o(.text) refers to defsig_general.o(.text) for __default_signal_display
    defsig_pvfn_inner.o(.text) refers to defsig_general.o(.text) for __default_signal_display
    defsig_cppl_inner.o(.text) refers to defsig_general.o(.text) for __default_signal_display
    defsig_segv_inner.o(.text) refers to defsig_general.o(.text) for __default_signal_display
    defsig_other.o(.text) refers to defsig_general.o(.text) for __default_signal_display


==============================================================================

Removing Unused input sections from the image.

    Removing system_rtl8762c.o(.rev16_text), (4 bytes).
    Removing system_rtl8762c.o(.revsh_text), (4 bytes).
    Removing system_rtl8762c.o(.rrx_text), (6 bytes).
    Removing rtl876x_io_dlps.o(.rev16_text), (4 bytes).
    Removing rtl876x_io_dlps.o(.revsh_text), (4 bytes).
    Removing rtl876x_io_dlps.o(.rrx_text), (6 bytes).
    Removing rtl876x_rcc.o(.rev16_text), (4 bytes).
    Removing rtl876x_rcc.o(.revsh_text), (4 bytes).
    Removing rtl876x_rcc.o(.rrx_text), (6 bytes).
    Removing rtl876x_tim.o(.rev16_text), (4 bytes).
    Removing rtl876x_tim.o(.revsh_text), (4 bytes).
    Removing rtl876x_tim.o(.rrx_text), (6 bytes).
    Removing rtl876x_uart.o(.rev16_text), (4 bytes).
    Removing rtl876x_uart.o(.revsh_text), (4 bytes).
    Removing rtl876x_uart.o(.rrx_text), (6 bytes).
    Removing rtl876x_gpio.o(.rev16_text), (4 bytes).
    Removing rtl876x_gpio.o(.revsh_text), (4 bytes).
    Removing rtl876x_gpio.o(.rrx_text), (6 bytes).
    Removing dfu_server.o(.rev16_text), (4 bytes).
    Removing dfu_server.o(.revsh_text), (4 bytes).
    Removing dfu_server.o(.rrx_text), (6 bytes).
    Removing dfu_server.o(.bss), (1 bytes).
    Removing dfu_server.o(.bss), (1 bytes).
    Removing dfu_client.o(.rev16_text), (4 bytes).
    Removing dfu_client.o(.revsh_text), (4 bytes).
    Removing dfu_client.o(.rrx_text), (6 bytes).
    Removing ota_server.o(.rev16_text), (4 bytes).
    Removing ota_server.o(.revsh_text), (4 bytes).
    Removing ota_server.o(.rrx_text), (6 bytes).
    Removing ota_server.o(.bss), (1 bytes).
    Removing ais_server.o(.rev16_text), (4 bytes).
    Removing ais_server.o(.revsh_text), (4 bytes).
    Removing ais_server.o(.rrx_text), (6 bytes).
    Removing dis.o(.constdata), (2 bytes).
    Removing health_server.o(.rev16_text), (4 bytes).
    Removing health_server.o(.revsh_text), (4 bytes).
    Removing health_server.o(.rrx_text), (6 bytes).
    Removing firmware_update_server.o(.rev16_text), (4 bytes).
    Removing firmware_update_server.o(.revsh_text), (4 bytes).
    Removing firmware_update_server.o(.rrx_text), (6 bytes).
    Removing object_transfer_server.o(.rev16_text), (4 bytes).
    Removing object_transfer_server.o(.revsh_text), (4 bytes).
    Removing object_transfer_server.o(.rrx_text), (6 bytes).
    Removing object_transfer_server.o(.constdata), (1 bytes).
    Removing generic_on_off_server.o(.rev16_text), (4 bytes).
    Removing generic_on_off_server.o(.revsh_text), (4 bytes).
    Removing generic_on_off_server.o(.rrx_text), (6 bytes).
    Removing generic_power_on_off_server.o(.rev16_text), (4 bytes).
    Removing generic_power_on_off_server.o(.revsh_text), (4 bytes).
    Removing generic_power_on_off_server.o(.rrx_text), (6 bytes).
    Removing generic_power_on_off_server.o(.text), (296 bytes).
    Removing generic_power_on_off_setup_server.o(.rev16_text), (4 bytes).
    Removing generic_power_on_off_setup_server.o(.revsh_text), (4 bytes).
    Removing generic_power_on_off_setup_server.o(.rrx_text), (6 bytes).
    Removing generic_power_on_off_setup_server.o(.text), (172 bytes).
    Removing generic_level_server.o(.rev16_text), (4 bytes).
    Removing generic_level_server.o(.revsh_text), (4 bytes).
    Removing generic_level_server.o(.rrx_text), (6 bytes).
    Removing generic_level_server.o(.text), (1442 bytes).
    Removing generic_level_server.o(.constdata), (25 bytes).
    Removing generic_transition_time.o(.rev16_text), (4 bytes).
    Removing generic_transition_time.o(.revsh_text), (4 bytes).
    Removing generic_transition_time.o(.rrx_text), (6 bytes).
    Removing light_lightness_server.o(.rev16_text), (4 bytes).
    Removing light_lightness_server.o(.revsh_text), (4 bytes).
    Removing light_lightness_server.o(.rrx_text), (6 bytes).
    Removing light_lightness_server.o(.text), (1876 bytes).
    Removing light_lightness_server.o(.constdata), (27 bytes).
    Removing light_lightness_server.o(.data), (2 bytes).
    Removing light_lightness_setup_server.o(.rev16_text), (4 bytes).
    Removing light_lightness_setup_server.o(.revsh_text), (4 bytes).
    Removing light_lightness_setup_server.o(.rrx_text), (6 bytes).
    Removing light_lightness_setup_server.o(.text), (252 bytes).
    Removing light_ctl_server.o(.rev16_text), (4 bytes).
    Removing light_ctl_server.o(.revsh_text), (4 bytes).
    Removing light_ctl_server.o(.rrx_text), (6 bytes).
    Removing light_ctl_server.o(.text), (1644 bytes).
    Removing light_ctl_server.o(.constdata), (21 bytes).
    Removing light_ctl_temperature_server.o(.rev16_text), (4 bytes).
    Removing light_ctl_temperature_server.o(.revsh_text), (4 bytes).
    Removing light_ctl_temperature_server.o(.rrx_text), (6 bytes).
    Removing light_ctl_temperature_server.o(.text), (952 bytes).
    Removing light_ctl_temperature_server.o(.constdata), (33 bytes).
    Removing light_hsl_server.o(.rev16_text), (4 bytes).
    Removing light_hsl_server.o(.revsh_text), (4 bytes).
    Removing light_hsl_server.o(.rrx_text), (6 bytes).
    Removing light_hsl_server.o(.text), (1604 bytes).
    Removing light_hsl_server.o(.constdata), (21 bytes).
    Removing light_hsl_hue_server.o(.rev16_text), (4 bytes).
    Removing light_hsl_hue_server.o(.revsh_text), (4 bytes).
    Removing light_hsl_hue_server.o(.rrx_text), (6 bytes).
    Removing light_hsl_hue_server.o(.text), (972 bytes).
    Removing light_hsl_hue_server.o(.constdata), (25 bytes).
    Removing light_hsl_saturation_server.o(.rev16_text), (4 bytes).
    Removing light_hsl_saturation_server.o(.revsh_text), (4 bytes).
    Removing light_hsl_saturation_server.o(.rrx_text), (6 bytes).
    Removing light_hsl_saturation_server.o(.text), (964 bytes).
    Removing light_hsl_saturation_server.o(.constdata), (32 bytes).
    Removing light_hsl_setup_server.o(.rev16_text), (4 bytes).
    Removing light_hsl_setup_server.o(.revsh_text), (4 bytes).
    Removing light_hsl_setup_server.o(.rrx_text), (6 bytes).
    Removing light_hsl_setup_server.o(.text), (296 bytes).
    Removing light_cwrgb_server.o(.rev16_text), (4 bytes).
    Removing light_cwrgb_server.o(.revsh_text), (4 bytes).
    Removing light_cwrgb_server.o(.rrx_text), (6 bytes).
    Removing light_cwrgb_server.o(.text), (88 bytes).
    Removing generic_default_transition_time_server.o(.rev16_text), (4 bytes).
    Removing generic_default_transition_time_server.o(.revsh_text), (4 bytes).
    Removing generic_default_transition_time_server.o(.rrx_text), (6 bytes).
    Removing generic_default_transition_time_server.o(.text), (400 bytes).
    Removing scene_server.o(.rev16_text), (4 bytes).
    Removing scene_server.o(.revsh_text), (4 bytes).
    Removing scene_server.o(.rrx_text), (6 bytes).
    Removing scene_server.o(.text), (1278 bytes).
    Removing scene_server.o(.constdata), (39 bytes).
    Removing light_ctl_setup_server.o(.rev16_text), (4 bytes).
    Removing light_ctl_setup_server.o(.revsh_text), (4 bytes).
    Removing light_ctl_setup_server.o(.rrx_text), (6 bytes).
    Removing light_ctl_setup_server.o(.text), (316 bytes).
    Removing scene_setup_server.o(.rev16_text), (4 bytes).
    Removing scene_setup_server.o(.revsh_text), (4 bytes).
    Removing scene_setup_server.o(.rrx_text), (6 bytes).
    Removing scene_setup_server.o(.text), (488 bytes).
    Removing scene_setup_server.o(.constdata), (23 bytes).
    Removing delay_execution.o(.rev16_text), (4 bytes).
    Removing delay_execution.o(.revsh_text), (4 bytes).
    Removing delay_execution.o(.rrx_text), (6 bytes).
    Removing ali_model.o(.rev16_text), (4 bytes).
    Removing ali_model.o(.revsh_text), (4 bytes).
    Removing ali_model.o(.rrx_text), (6 bytes).
    Removing dfu_updater_app.o(.rev16_text), (4 bytes).
    Removing dfu_updater_app.o(.revsh_text), (4 bytes).
    Removing dfu_updater_app.o(.rrx_text), (6 bytes).
    Removing dimmable_light.o(.rev16_text), (4 bytes).
    Removing dimmable_light.o(.revsh_text), (4 bytes).
    Removing dimmable_light.o(.rrx_text), (6 bytes).
    Removing mp_cmd_parse.o(.rev16_text), (4 bytes).
    Removing mp_cmd_parse.o(.revsh_text), (4 bytes).
    Removing mp_cmd_parse.o(.rrx_text), (6 bytes).
    Removing reset_watch_dog_timer.o(.rev16_text), (4 bytes).
    Removing reset_watch_dog_timer.o(.revsh_text), (4 bytes).
    Removing reset_watch_dog_timer.o(.rrx_text), (6 bytes).
    Removing light_effect_app.o(.rev16_text), (4 bytes).
    Removing light_effect_app.o(.revsh_text), (4 bytes).
    Removing light_effect_app.o(.rrx_text), (6 bytes).
    Removing light_storage_app.o(.rev16_text), (4 bytes).
    Removing light_storage_app.o(.revsh_text), (4 bytes).
    Removing light_storage_app.o(.rrx_text), (6 bytes).
    Removing light_cwrgb_app.o(.rev16_text), (4 bytes).
    Removing light_cwrgb_app.o(.revsh_text), (4 bytes).
    Removing light_cwrgb_app.o(.rrx_text), (6 bytes).
    Removing app_task.o(.rev16_text), (4 bytes).
    Removing app_task.o(.revsh_text), (4 bytes).
    Removing app_task.o(.rrx_text), (6 bytes).
    Removing main.o(.rev16_text), (4 bytes).
    Removing main.o(.revsh_text), (4 bytes).
    Removing main.o(.rrx_text), (6 bytes).
    Removing strip_app.o(.rev16_text), (4 bytes).
    Removing strip_app.o(.revsh_text), (4 bytes).
    Removing strip_app.o(.rrx_text), (6 bytes).
    Removing strip_timer.o(.rev16_text), (4 bytes).
    Removing strip_timer.o(.revsh_text), (4 bytes).
    Removing strip_timer.o(.rrx_text), (6 bytes).
    Removing main_app.o(.rev16_text), (4 bytes).
    Removing main_app.o(.revsh_text), (4 bytes).
    Removing main_app.o(.rrx_text), (6 bytes).
    Removing silent_dfu_flash.o(.rev16_text), (4 bytes).
    Removing silent_dfu_flash.o(.revsh_text), (4 bytes).
    Removing silent_dfu_flash.o(.rrx_text), (6 bytes).
    Removing delay_msg_rsp.o(.rev16_text), (4 bytes).
    Removing delay_msg_rsp.o(.revsh_text), (4 bytes).
    Removing delay_msg_rsp.o(.rrx_text), (6 bytes).
    Removing delay_msg_rsp.o(.text), (112 bytes).
    Removing light_controller_app.o(.rev16_text), (4 bytes).
    Removing light_controller_app.o(.revsh_text), (4 bytes).
    Removing light_controller_app.o(.rrx_text), (6 bytes).
    Removing light_swtimer.o(.rev16_text), (4 bytes).
    Removing light_swtimer.o(.revsh_text), (4 bytes).
    Removing light_swtimer.o(.rrx_text), (6 bytes).
    Removing light_dlps_ctrl.o(.rev16_text), (4 bytes).
    Removing light_dlps_ctrl.o(.revsh_text), (4 bytes).
    Removing light_dlps_ctrl.o(.rrx_text), (6 bytes).
    Removing rtl8762c_lib_flash.o(.rev16_text), (4 bytes).
    Removing rtl8762c_lib_flash.o(.revsh_text), (4 bytes).
    Removing rtl8762c_lib_flash.o(.rrx_text), (6 bytes).
    Removing rtl8762c_lib_flash.o(.ram.dataon.data), (420 bytes).
    Removing rtl8762c_lib_flash.o(i.flash_get_block_protect_locked), (38 bytes).
    Removing rtl8762c_lib_flash.o(i.flash_otp_enter_locked), (20 bytes).
    Removing rtl8762c_lib_flash.o(i.flash_otp_erase), (20 bytes).
    Removing rtl8762c_lib_flash.o(i.flash_otp_erase_locked), (72 bytes).
    Removing rtl8762c_lib_flash.o(i.flash_otp_exit_locked), (20 bytes).
    Removing rtl8762c_lib_flash.o(i.flash_otp_get_lb_locked), (20 bytes).
    Removing rtl8762c_lib_flash.o(i.flash_otp_init), (204 bytes).
    Removing rtl8762c_lib_flash.o(i.flash_otp_read), (64 bytes).
    Removing rtl8762c_lib_flash.o(i.flash_otp_read_locked), (52 bytes).
    Removing rtl8762c_lib_flash.o(i.flash_otp_set_lb_locked), (20 bytes).
    Removing rtl8762c_lib_flash.o(i.flash_otp_write), (80 bytes).
    Removing rtl8762c_lib_flash.o(i.flash_otp_write_locked), (52 bytes).
    Removing rtl8762c_lib_flash.o(.bss), (32 bytes).
    Removing rtl876x_lib_platform.o(.rev16_text), (4 bytes).
    Removing rtl876x_lib_platform.o(.revsh_text), (4 bytes).
    Removing rtl876x_lib_platform.o(.rrx_text), (6 bytes).
    Removing rtl876x_lib_platform.o(i.WriteXtalToConfig), (136 bytes).
    Removing rtl876x_lib_platform.o(i.WriteXtalToEfuse), (192 bytes).
    Removing rtl876x_lib_platform.o(i.read_config_bdaddr), (80 bytes).
    Removing rtl876x_lib_platform.o(i.update_mac_to_efuse), (228 bytes).
    Removing gap_config.o(.text), (148 bytes).
    Removing platform_misc.o(.rev16_text), (4 bytes).
    Removing platform_misc.o(.revsh_text), (4 bytes).
    Removing platform_misc.o(.rrx_text), (6 bytes).
    Removing data_uart.o(.rev16_text), (4 bytes).
    Removing data_uart.o(.revsh_text), (4 bytes).
    Removing data_uart.o(.rrx_text), (6 bytes).
    Removing gap_scheduler.o(.rev16_text), (4 bytes).
    Removing gap_scheduler.o(.revsh_text), (4 bytes).
    Removing gap_scheduler.o(.rrx_text), (6 bytes).
    Removing mesh_access.o(.rev16_text), (4 bytes).
    Removing mesh_access.o(.revsh_text), (4 bytes).
    Removing mesh_access.o(.rrx_text), (6 bytes).
    Removing mesh_bearer.o(.rev16_text), (4 bytes).
    Removing mesh_bearer.o(.revsh_text), (4 bytes).
    Removing mesh_bearer.o(.rrx_text), (6 bytes).
    Removing mesh_beacon.o(.rev16_text), (4 bytes).
    Removing mesh_beacon.o(.revsh_text), (4 bytes).
    Removing mesh_beacon.o(.rrx_text), (6 bytes).
    Removing mesh_common.o(.rev16_text), (4 bytes).
    Removing mesh_common.o(.revsh_text), (4 bytes).
    Removing mesh_common.o(.rrx_text), (6 bytes).
    Removing mesh_provision.o(.rev16_text), (4 bytes).
    Removing mesh_provision.o(.revsh_text), (4 bytes).
    Removing mesh_provision.o(.rrx_text), (6 bytes).
    Removing mesh_service.o(.rev16_text), (4 bytes).
    Removing mesh_service.o(.revsh_text), (4 bytes).
    Removing mesh_service.o(.rrx_text), (6 bytes).
    Removing mesh_node.o(.rev16_text), (4 bytes).
    Removing mesh_node.o(.revsh_text), (4 bytes).
    Removing mesh_node.o(.rrx_text), (6 bytes).
    Removing friendship_fn.o(.rev16_text), (4 bytes).
    Removing friendship_fn.o(.revsh_text), (4 bytes).
    Removing friendship_fn.o(.rrx_text), (6 bytes).
    Removing provision_device.o(.rev16_text), (4 bytes).
    Removing provision_device.o(.revsh_text), (4 bytes).
    Removing provision_device.o(.rrx_text), (6 bytes).
    Removing mesh_flash.o(.rev16_text), (4 bytes).
    Removing mesh_flash.o(.revsh_text), (4 bytes).
    Removing mesh_flash.o(.rrx_text), (6 bytes).
    Removing rtl876x_lib_cfg_int.o(i.cfg_del_item), (272 bytes).
    Removing rtl876x_lib_efuse_int.o(i.get_efuse_logic_item_cnt), (320 bytes).
    Removing rtl876x_lib_efuse_int.o(i.write_efuse_bank_data), (400 bytes).
    Removing rtl876x_lib_efuse_int.o(.data), (4 bytes).
    Removing rtl876x_lib_efuse_int.o(.data), (8 bytes).
    Removing mxic_flash_otp.o(.rev16_text), (4 bytes).
    Removing mxic_flash_otp.o(.revsh_text), (4 bytes).
    Removing mxic_flash_otp.o(.rrx_text), (6 bytes).
    Removing mxic_flash_otp.o(.ram.dataon.data), (112 bytes).
    Removing xtx_flash_otp.o(.rev16_text), (4 bytes).
    Removing xtx_flash_otp.o(.revsh_text), (4 bytes).
    Removing xtx_flash_otp.o(.rrx_text), (6 bytes).
    Removing xtx_flash_otp.o(.ram.dataon.data), (560 bytes).
    Removing xtx_flash_otp.o(i.xtx_otp_enter_internal), (4 bytes).
    Removing xtx_flash_otp.o(i.xtx_otp_exit_internal), (4 bytes).
    Removing ecc.o(.rev16_text), (4 bytes).
    Removing ecc.o(.revsh_text), (4 bytes).
    Removing ecc.o(.rrx_text), (6 bytes).
    Removing provision_server.o(.rev16_text), (4 bytes).
    Removing provision_server.o(.revsh_text), (4 bytes).
    Removing provision_server.o(.rrx_text), (6 bytes).
    Removing provision_service.o(.rev16_text), (4 bytes).
    Removing provision_service.o(.revsh_text), (4 bytes).
    Removing provision_service.o(.rrx_text), (6 bytes).
    Removing proxy_server.o(.rev16_text), (4 bytes).
    Removing proxy_server.o(.revsh_text), (4 bytes).
    Removing proxy_server.o(.rrx_text), (6 bytes).
    Removing proxy_service.o(.rev16_text), (4 bytes).
    Removing proxy_service.o(.revsh_text), (4 bytes).
    Removing proxy_service.o(.rrx_text), (6 bytes).
    Removing mesh_transport.o(.rev16_text), (4 bytes).
    Removing mesh_transport.o(.revsh_text), (4 bytes).
    Removing mesh_transport.o(.rrx_text), (6 bytes).
    Removing mesh_network.o(.rev16_text), (4 bytes).
    Removing mesh_network.o(.revsh_text), (4 bytes).
    Removing mesh_network.o(.rrx_text), (6 bytes).
    Removing mesh_security.o(.rev16_text), (4 bytes).
    Removing mesh_security.o(.revsh_text), (4 bytes).
    Removing mesh_security.o(.rrx_text), (6 bytes).
    Removing mesh_rpl.o(.rev16_text), (4 bytes).
    Removing mesh_rpl.o(.revsh_text), (4 bytes).
    Removing mesh_rpl.o(.rrx_text), (6 bytes).
    Removing provision_adv.o(.rev16_text), (4 bytes).
    Removing provision_adv.o(.revsh_text), (4 bytes).
    Removing provision_adv.o(.rrx_text), (6 bytes).
    Removing proxy_protocol.o(.rev16_text), (4 bytes).
    Removing proxy_protocol.o(.revsh_text), (4 bytes).
    Removing proxy_protocol.o(.rrx_text), (6 bytes).
    Removing friendship_lpn.o(.rev16_text), (4 bytes).
    Removing friendship_lpn.o(.revsh_text), (4 bytes).
    Removing friendship_lpn.o(.rrx_text), (6 bytes).
    Removing heartbeat.o(.rev16_text), (4 bytes).
    Removing heartbeat.o(.revsh_text), (4 bytes).
    Removing heartbeat.o(.rrx_text), (6 bytes).
    Removing configuration_server.o(.rev16_text), (4 bytes).
    Removing configuration_server.o(.revsh_text), (4 bytes).
    Removing configuration_server.o(.rrx_text), (6 bytes).
    Removing crc8ets.o(.rev16_text), (4 bytes).
    Removing crc8ets.o(.revsh_text), (4 bytes).
    Removing crc8ets.o(.rrx_text), (6 bytes).
    Removing transport_ping.o(.rev16_text), (4 bytes).
    Removing transport_ping.o(.revsh_text), (4 bytes).
    Removing transport_ping.o(.rrx_text), (6 bytes).

309 unused section(s) (total 18150 bytes) removed from the image.

==============================================================================

Image Symbol Table

    Local Symbols

    Symbol Name                              Value     Ov Type        Size  Object(Section)

    ../clib/angel/boardlib.s                 0x00000000   Number         0  boardinit1.o ABSOLUTE
    ../clib/angel/boardlib.s                 0x00000000   Number         0  boardinit2.o ABSOLUTE
    ../clib/angel/boardlib.s                 0x00000000   Number         0  boardinit3.o ABSOLUTE
    ../clib/angel/kernel.s                   0x00000000   Number         0  __rtentry2.o ABSOLUTE
    ../clib/angel/kernel.s                   0x00000000   Number         0  __rtentry.o ABSOLUTE
    ../clib/angel/kernel.s                   0x00000000   Number         0  __rtentry4.o ABSOLUTE
    ../clib/angel/rt.s                       0x00000000   Number         0  rt_errno_addr_intlibspace.o ABSOLUTE
    ../clib/angel/rt.s                       0x00000000   Number         0  rt_errno_addr.o ABSOLUTE
    ../clib/angel/rt.s                       0x00000000   Number         0  rt_raise.o ABSOLUTE
    ../clib/angel/startup.s                  0x00000000   Number         0  __main.o ABSOLUTE
    ../clib/angel/sys.s                      0x00000000   Number         0  use_no_semi.o ABSOLUTE
    ../clib/angel/sys.s                      0x00000000   Number         0  libspace.o ABSOLUTE
    ../clib/angel/sys.s                      0x00000000   Number         0  indicate_semi.o ABSOLUTE
    ../clib/angel/sysapp.c                   0x00000000   Number         0  sys_command.o ABSOLUTE
    ../clib/angel/sysapp.c                   0x00000000   Number         0  sys_exit.o ABSOLUTE
    ../clib/angel/sysapp.c                   0x00000000   Number         0  sys_wrch.o ABSOLUTE
    ../clib/armsys.c                         0x00000000   Number         0  argv_veneer.o ABSOLUTE
    ../clib/armsys.c                         0x00000000   Number         0  _get_argv_nomalloc.o ABSOLUTE
    ../clib/armsys.c                         0x00000000   Number         0  no_argv.o ABSOLUTE
    ../clib/armsys.c                         0x00000000   Number         0  argv_veneer.o ABSOLUTE
    ../clib/fenv.c                           0x00000000   Number         0  _rserrno.o ABSOLUTE
    ../clib/heapalloc.c                      0x00000000   Number         0  hrguard.o ABSOLUTE
    ../clib/libinit.s                        0x00000000   Number         0  libinit.o ABSOLUTE
    ../clib/libinit.s                        0x00000000   Number         0  libinit2.o ABSOLUTE
    ../clib/longlong.s                       0x00000000   Number         0  llshl.o ABSOLUTE
    ../clib/longlong.s                       0x00000000   Number         0  llushr.o ABSOLUTE
    ../clib/misc.s                           0x00000000   Number         0  printf_stubs.o ABSOLUTE
    ../clib/printf.c                         0x00000000   Number         0  _printf_char_common.o ABSOLUTE
    ../clib/printf.c                         0x00000000   Number         0  __printf_flags_ss.o ABSOLUTE
    ../clib/printf.c                         0x00000000   Number         0  _sputc.o ABSOLUTE
    ../clib/printf.c                         0x00000000   Number         0  __printf_ss.o ABSOLUTE
    ../clib/printf.c                         0x00000000   Number         0  __printf_flags.o ABSOLUTE
    ../clib/printf.c                         0x00000000   Number         0  _printf_hex_int_ll_ptr.o ABSOLUTE
    ../clib/printf.c                         0x00000000   Number         0  _printf_hex_ll_ptr.o ABSOLUTE
    ../clib/printf.c                         0x00000000   Number         0  _printf_hex_int_ptr.o ABSOLUTE
    ../clib/printf.c                         0x00000000   Number         0  _printf_hex_ptr.o ABSOLUTE
    ../clib/printf.c                         0x00000000   Number         0  _printf_hex_int_ll.o ABSOLUTE
    ../clib/printf.c                         0x00000000   Number         0  _printf_hex_int.o ABSOLUTE
    ../clib/printf.c                         0x00000000   Number         0  _printf_hex_ll.o ABSOLUTE
    ../clib/printf.c                         0x00000000   Number         0  _printf_pad.o ABSOLUTE
    ../clib/printf.c                         0x00000000   Number         0  _printf_intcommon.o ABSOLUTE
    ../clib/printf.c                         0x00000000   Number         0  __printf.o ABSOLUTE
    ../clib/printf.c                         0x00000000   Number         0  noretval__2sprintf.o ABSOLUTE
    ../clib/printf.c                         0x00000000   Number         0  __2sprintf.o ABSOLUTE
    ../clib/printf.c                         0x00000000   Number         0  __printf_nopercent.o ABSOLUTE
    ../clib/printf.c                         0x00000000   Number         0  __printf_wp.o ABSOLUTE
    ../clib/printf.c                         0x00000000   Number         0  __printf_ss_wp.o ABSOLUTE
    ../clib/printf.c                         0x00000000   Number         0  __printf_flags_ss_wp.o ABSOLUTE
    ../clib/printf.c                         0x00000000   Number         0  __printf_flags_wp.o ABSOLUTE
    ../clib/printf_percent.s                 0x00000000   Number         0  _printf_percent_end.o ABSOLUTE
    ../clib/printf_percent.s                 0x00000000   Number         0  _printf_x.o ABSOLUTE
    ../clib/printf_percent.s                 0x00000000   Number         0  _printf_percent.o ABSOLUTE
    ../clib/signal.c                         0x00000000   Number         0  defsig_cppl_inner.o ABSOLUTE
    ../clib/signal.c                         0x00000000   Number         0  defsig_general.o ABSOLUTE
    ../clib/signal.c                         0x00000000   Number         0  __raise.o ABSOLUTE
    ../clib/signal.c                         0x00000000   Number         0  defsig_other.o ABSOLUTE
    ../clib/signal.c                         0x00000000   Number         0  defsig_fpe_inner.o ABSOLUTE
    ../clib/signal.c                         0x00000000   Number         0  defsig_abrt_inner.o ABSOLUTE
    ../clib/signal.c                         0x00000000   Number         0  defsig_segv_inner.o ABSOLUTE
    ../clib/signal.c                         0x00000000   Number         0  defsig_rtred_inner.o ABSOLUTE
    ../clib/signal.c                         0x00000000   Number         0  defsig_stak_inner.o ABSOLUTE
    ../clib/signal.c                         0x00000000   Number         0  defsig_pvfn_inner.o ABSOLUTE
    ../clib/signal.c                         0x00000000   Number         0  defsig_rtmem_inner.o ABSOLUTE
    ../clib/signal.c                         0x00000000   Number         0  defsig_rtmem_formal.o ABSOLUTE
    ../clib/signal.c                         0x00000000   Number         0  defsig_rtmem_outer.o ABSOLUTE
    ../clib/signal.c                         0x00000000   Number         0  defsig_exit.o ABSOLUTE
    ../clib/signal.s                         0x00000000   Number         0  defsig.o ABSOLUTE
    ../clib/stdlib.c                         0x00000000   Number         0  rand.o ABSOLUTE
    ../clib/stdlib.c                         0x00000000   Number         0  rand.o ABSOLUTE
    ../clib/string.c                         0x00000000   Number         0  strncmp.o ABSOLUTE
    ../fplib/d2f.s                           0x00000000   Number         0  d2f.o ABSOLUTE
    ../fplib/daddsub.s                       0x00000000   Number         0  daddsub_clz.o ABSOLUTE
    ../fplib/dcmpi.s                         0x00000000   Number         0  dcmpi.o ABSOLUTE
    ../fplib/ddiv.s                          0x00000000   Number         0  ddiv.o ABSOLUTE
    ../fplib/dfix.s                          0x00000000   Number         0  dfix.o ABSOLUTE
    ../fplib/dfixu.s                         0x00000000   Number         0  dfixu.o ABSOLUTE
    ../fplib/dflt.s                          0x00000000   Number         0  dflt_clz.o ABSOLUTE
    ../fplib/dleqf.s                         0x00000000   Number         0  dleqf.o ABSOLUTE
    ../fplib/dmul.s                          0x00000000   Number         0  dmul.o ABSOLUTE
    ../fplib/dnaninf.s                       0x00000000   Number         0  dnaninf.o ABSOLUTE
    ../fplib/dretinf.s                       0x00000000   Number         0  dretinf.o ABSOLUTE
    ../fplib/drleqf.s                        0x00000000   Number         0  drleqf.o ABSOLUTE
    ../fplib/dsqrt.s                         0x00000000   Number         0  dsqrt_umaal.o ABSOLUTE
    ../fplib/f2d.s                           0x00000000   Number         0  f2d.o ABSOLUTE
    ../fplib/fnaninf.s                       0x00000000   Number         0  fnaninf.o ABSOLUTE
    ../fplib/fpinit.s                        0x00000000   Number         0  fpinit.o ABSOLUTE
    ../fplib/fretinf.s                       0x00000000   Number         0  fretinf.o ABSOLUTE
    ../fplib/usenofp.s                       0x00000000   Number         0  usenofp.o ABSOLUTE
    ../mathlib/ceil.c                        0x00000000   Number         0  ceil.o ABSOLUTE
    ../mathlib/sqrt.c                        0x00000000   Number         0  sqrt_x.o ABSOLUTE
    ../mathlib/sqrt.c                        0x00000000   Number         0  sqrt.o ABSOLUTE
    ..\..\..\src\app\bee2_sdk_lib\src\mxic_flash_otp.c 0x00000000   Number         0  mxic_flash_otp.o ABSOLUTE
    ..\..\..\src\app\bee2_sdk_lib\src\rtl8762c_lib_flash.c 0x00000000   Number         0  rtl8762c_lib_flash.o ABSOLUTE
    ..\..\..\src\app\bee2_sdk_lib\src\rtl876x_lib_cfg_int.c 0x00000000   Number         0  rtl876x_lib_cfg_int.o ABSOLUTE
    ..\..\..\src\app\bee2_sdk_lib\src\rtl876x_lib_efuse_int.c 0x00000000   Number         0  rtl876x_lib_efuse_int.o ABSOLUTE
    ..\..\..\src\app\bee2_sdk_lib\src\rtl876x_lib_platform.c 0x00000000   Number         0  rtl876x_lib_platform.o ABSOLUTE
    ..\..\..\src\app\bee2_sdk_lib\src\xtx_flash_otp.c 0x00000000   Number         0  xtx_flash_otp.o ABSOLUTE
    ..\..\..\src\app\gap_lib\8762\common\gap_lib_patch.c 0x00000000   Number         0  gap_lib_patch.o ABSOLUTE
    ..\..\..\src\app\gap_lib\extension\gap_config.c 0x00000000   Number         0  gap_config.o ABSOLUTE
    ..\..\..\src\app\gap_lib\extension\gap_vendor_cmd.c 0x00000000   Number         0  gap_vendor_cmd.o ABSOLUTE
    ..\..\..\src\app\gap_lib\gap_lib\gap_lib.c 0x00000000   Number         0  gap_lib.o ABSOLUTE
    ..\..\..\src\app\mesh\ali_strip\app_task.c 0x00000000   Number         0  app_task.o ABSOLUTE
    ..\..\..\src\app\mesh\ali_strip\light_dlps_ctrl.c 0x00000000   Number         0  light_dlps_ctrl.o ABSOLUTE
    ..\..\..\src\app\mesh\ali_strip\light_swtimer.c 0x00000000   Number         0  light_swtimer.o ABSOLUTE
    ..\..\..\src\app\mesh\ali_strip\main.c   0x00000000   Number         0  main.o ABSOLUTE
    ..\..\..\src\app\mesh\ali_strip\main_app.c 0x00000000   Number         0  main_app.o ABSOLUTE
    ..\..\..\src\app\mesh\ali_strip\mp_cmd.c 0x00000000   Number         0  mp_cmd.o ABSOLUTE
    ..\..\..\src\app\mesh\ali_strip\strip_app.c 0x00000000   Number         0  strip_app.o ABSOLUTE
    ..\..\..\src\app\mesh\ali_strip\strip_timer.c 0x00000000   Number         0  strip_timer.o ABSOLUTE
    ..\..\..\src\app\mesh\ali_strip\user_data.c 0x00000000   Number         0  user_data.o ABSOLUTE
    ..\..\..\src\app\mesh\lib\cmd\data_uart.c 0x00000000   Number         0  data_uart.o ABSOLUTE
    ..\..\..\src\app\mesh\lib\common\dfu_updater_app.c 0x00000000   Number         0  dfu_updater_app.o ABSOLUTE
    ..\..\..\src\app\mesh\lib\common\light_controller_app.c 0x00000000   Number         0  light_controller_app.o ABSOLUTE
    ..\..\..\src\app\mesh\lib\common\light_cwrgb_app.c 0x00000000   Number         0  light_cwrgb_app.o ABSOLUTE
    ..\..\..\src\app\mesh\lib\common\light_effect_app.c 0x00000000   Number         0  light_effect_app.o ABSOLUTE
    ..\..\..\src\app\mesh\lib\common\light_storage_app.c 0x00000000   Number         0  light_storage_app.o ABSOLUTE
    ..\..\..\src\app\mesh\lib\common\mp_cmd_parse.c 0x00000000   Number         0  mp_cmd_parse.o ABSOLUTE
    ..\..\..\src\app\mesh\lib\core\friendship_fn.c 0x00000000   Number         0  friendship_fn.o ABSOLUTE
    ..\..\..\src\app\mesh\lib\core\friendship_lpn.c 0x00000000   Number         0  friendship_lpn.o ABSOLUTE
    ..\..\..\src\app\mesh\lib\core\heartbeat.c 0x00000000   Number         0  heartbeat.o ABSOLUTE
    ..\..\..\src\app\mesh\lib\core\mesh_access.c 0x00000000   Number         0  mesh_access.o ABSOLUTE
    ..\..\..\src\app\mesh\lib\core\mesh_beacon.c 0x00000000   Number         0  mesh_beacon.o ABSOLUTE
    ..\..\..\src\app\mesh\lib\core\mesh_bearer.c 0x00000000   Number         0  mesh_bearer.o ABSOLUTE
    ..\..\..\src\app\mesh\lib\core\mesh_common.c 0x00000000   Number         0  mesh_common.o ABSOLUTE
    ..\..\..\src\app\mesh\lib\core\mesh_flash.c 0x00000000   Number         0  mesh_flash.o ABSOLUTE
    ..\..\..\src\app\mesh\lib\core\mesh_network.c 0x00000000   Number         0  mesh_network.o ABSOLUTE
    ..\..\..\src\app\mesh\lib\core\mesh_node.c 0x00000000   Number         0  mesh_node.o ABSOLUTE
    ..\..\..\src\app\mesh\lib\core\mesh_provision.c 0x00000000   Number         0  mesh_provision.o ABSOLUTE
    ..\..\..\src\app\mesh\lib\core\mesh_rpl.c 0x00000000   Number         0  mesh_rpl.o ABSOLUTE
    ..\..\..\src\app\mesh\lib\core\mesh_security.c 0x00000000   Number         0  mesh_security.o ABSOLUTE
    ..\..\..\src\app\mesh\lib\core\mesh_service.c 0x00000000   Number         0  mesh_service.o ABSOLUTE
    ..\..\..\src\app\mesh\lib\core\mesh_transport.c 0x00000000   Number         0  mesh_transport.o ABSOLUTE
    ..\..\..\src\app\mesh\lib\core\provision_adv.c 0x00000000   Number         0  provision_adv.o ABSOLUTE
    ..\..\..\src\app\mesh\lib\core\provision_device.c 0x00000000   Number         0  provision_device.o ABSOLUTE
    ..\..\..\src\app\mesh\lib\core\proxy_protocol.c 0x00000000   Number         0  proxy_protocol.o ABSOLUTE
    ..\..\..\src\app\mesh\lib\core\transport_ping.c 0x00000000   Number         0  transport_ping.o ABSOLUTE
    ..\..\..\src\app\mesh\lib\gap\gap_scheduler.c 0x00000000   Number         0  gap_scheduler.o ABSOLUTE
    ..\..\..\src\app\mesh\lib\model\ali\ali_model.c 0x00000000   Number         0  ali_model.o ABSOLUTE
    ..\..\..\src\app\mesh\lib\model\configuration_server.c 0x00000000   Number         0  configuration_server.o ABSOLUTE
    ..\..\..\src\app\mesh\lib\model\delay_execution.c 0x00000000   Number         0  delay_execution.o ABSOLUTE
    ..\..\..\src\app\mesh\lib\model\delay_msg_rsp.c 0x00000000   Number         0  delay_msg_rsp.o ABSOLUTE
    ..\..\..\src\app\mesh\lib\model\firmware_update_server.c 0x00000000   Number         0  firmware_update_server.o ABSOLUTE
    ..\..\..\src\app\mesh\lib\model\generic_default_transition_time_server.c 0x00000000   Number         0  generic_default_transition_time_server.o ABSOLUTE
    ..\..\..\src\app\mesh\lib\model\generic_level_server.c 0x00000000   Number         0  generic_level_server.o ABSOLUTE
    ..\..\..\src\app\mesh\lib\model\generic_on_off_server.c 0x00000000   Number         0  generic_on_off_server.o ABSOLUTE
    ..\..\..\src\app\mesh\lib\model\generic_power_on_off_server.c 0x00000000   Number         0  generic_power_on_off_server.o ABSOLUTE
    ..\..\..\src\app\mesh\lib\model\generic_power_on_off_setup_server.c 0x00000000   Number         0  generic_power_on_off_setup_server.o ABSOLUTE
    ..\..\..\src\app\mesh\lib\model\generic_transition_time.c 0x00000000   Number         0  generic_transition_time.o ABSOLUTE
    ..\..\..\src\app\mesh\lib\model\health_server.c 0x00000000   Number         0  health_server.o ABSOLUTE
    ..\..\..\src\app\mesh\lib\model\light_ctl_server.c 0x00000000   Number         0  light_ctl_server.o ABSOLUTE
    ..\..\..\src\app\mesh\lib\model\light_ctl_setup_server.c 0x00000000   Number         0  light_ctl_setup_server.o ABSOLUTE
    ..\..\..\src\app\mesh\lib\model\light_ctl_temperature_server.c 0x00000000   Number         0  light_ctl_temperature_server.o ABSOLUTE
    ..\..\..\src\app\mesh\lib\model\light_hsl_hue_server.c 0x00000000   Number         0  light_hsl_hue_server.o ABSOLUTE
    ..\..\..\src\app\mesh\lib\model\light_hsl_saturation_server.c 0x00000000   Number         0  light_hsl_saturation_server.o ABSOLUTE
    ..\..\..\src\app\mesh\lib\model\light_hsl_server.c 0x00000000   Number         0  light_hsl_server.o ABSOLUTE
    ..\..\..\src\app\mesh\lib\model\light_hsl_setup_server.c 0x00000000   Number         0  light_hsl_setup_server.o ABSOLUTE
    ..\..\..\src\app\mesh\lib\model\light_lightness_server.c 0x00000000   Number         0  light_lightness_server.o ABSOLUTE
    ..\..\..\src\app\mesh\lib\model\light_lightness_setup_server.c 0x00000000   Number         0  light_lightness_setup_server.o ABSOLUTE
    ..\..\..\src\app\mesh\lib\model\object_transfer_server.c 0x00000000   Number         0  object_transfer_server.o ABSOLUTE
    ..\..\..\src\app\mesh\lib\model\realtek\light_cwrgb_server.c 0x00000000   Number         0  light_cwrgb_server.o ABSOLUTE
    ..\..\..\src\app\mesh\lib\model\scene_server.c 0x00000000   Number         0  scene_server.o ABSOLUTE
    ..\..\..\src\app\mesh\lib\model\scene_setup_server.c 0x00000000   Number         0  scene_setup_server.o ABSOLUTE
    ..\..\..\src\app\mesh\lib\platform\platform_diagnose.c 0x00000000   Number         0  platform_diagnose.o ABSOLUTE
    ..\..\..\src\app\mesh\lib\platform\platform_list.c 0x00000000   Number         0  platform_list.o ABSOLUTE
    ..\..\..\src\app\mesh\lib\platform\platform_misc.c 0x00000000   Number         0  platform_misc.o ABSOLUTE
    ..\..\..\src\app\mesh\lib\platform\platform_os.c 0x00000000   Number         0  platform_os.o ABSOLUTE
    ..\..\..\src\app\mesh\lib\platform\reset_watch_dog_timer.c 0x00000000   Number         0  reset_watch_dog_timer.o ABSOLUTE
    ..\..\..\src\app\mesh\lib\profile\ais_server.c 0x00000000   Number         0  ais_server.o ABSOLUTE
    ..\..\..\src\app\mesh\lib\profile\dfu_client.c 0x00000000   Number         0  dfu_client.o ABSOLUTE
    ..\..\..\src\app\mesh\lib\profile\dfu_server.c 0x00000000   Number         0  dfu_server.o ABSOLUTE
    ..\..\..\src\app\mesh\lib\profile\ota_server.c 0x00000000   Number         0  ota_server.o ABSOLUTE
    ..\..\..\src\app\mesh\lib\profile\provision_server.c 0x00000000   Number         0  provision_server.o ABSOLUTE
    ..\..\..\src\app\mesh\lib\profile\provision_service.c 0x00000000   Number         0  provision_service.o ABSOLUTE
    ..\..\..\src\app\mesh\lib\profile\proxy_server.c 0x00000000   Number         0  proxy_server.o ABSOLUTE
    ..\..\..\src\app\mesh\lib\profile\proxy_service.c 0x00000000   Number         0  proxy_service.o ABSOLUTE
    ..\..\..\src\app\mesh\lib\utility\aes.c  0x00000000   Number         0  aes.o ABSOLUTE
    ..\..\..\src\app\mesh\lib\utility\aes_cmac.c 0x00000000   Number         0  aes_cmac.o ABSOLUTE
    ..\..\..\src\app\mesh\lib\utility\ccm.c  0x00000000   Number         0  ccm.o ABSOLUTE
    ..\..\..\src\app\mesh\lib\utility\crc8ets.c 0x00000000   Number         0  crc8ets.o ABSOLUTE
    ..\..\..\src\app\mesh\lib\utility\dimmable_light.c 0x00000000   Number         0  dimmable_light.o ABSOLUTE
    ..\..\..\src\app\mesh\lib\utility\ecc.c  0x00000000   Number         0  ecc.o ABSOLUTE
    ..\..\..\src\ble\profile\server\dis.c    0x00000000   Number         0  dis.o ABSOLUTE
    ..\..\..\src\flash\silent_dfu_flash.c    0x00000000   Number         0  silent_dfu_flash.o ABSOLUTE
    ..\..\..\src\mcu\peripheral\rtl876x_gpio.c 0x00000000   Number         0  rtl876x_gpio.o ABSOLUTE
    ..\..\..\src\mcu\peripheral\rtl876x_io_dlps.c 0x00000000   Number         0  rtl876x_io_dlps.o ABSOLUTE
    ..\..\..\src\mcu\peripheral\rtl876x_rcc.c 0x00000000   Number         0  rtl876x_rcc.o ABSOLUTE
    ..\..\..\src\mcu\peripheral\rtl876x_tim.c 0x00000000   Number         0  rtl876x_tim.o ABSOLUTE
    ..\..\..\src\mcu\peripheral\rtl876x_uart.c 0x00000000   Number         0  rtl876x_uart.o ABSOLUTE
    ..\..\..\src\mcu\rtl876x\overlay_mgr.c   0x00000000   Number         0  overlay_mgr.o ABSOLUTE
    ..\..\..\src\mcu\rtl876x\system_rtl8762c.c 0x00000000   Number         0  system_rtl8762c.o ABSOLUTE
    ..\\..\\..\\src\\app\\bee2_sdk_lib\\src\\mxic_flash_otp.c 0x00000000   Number         0  mxic_flash_otp.o ABSOLUTE
    ..\\..\\..\\src\\app\\bee2_sdk_lib\\src\\rtl8762c_lib_flash.c 0x00000000   Number         0  rtl8762c_lib_flash.o ABSOLUTE
    ..\\..\\..\\src\\app\\bee2_sdk_lib\\src\\rtl876x_lib_platform.c 0x00000000   Number         0  rtl876x_lib_platform.o ABSOLUTE
    ..\\..\\..\\src\\app\\bee2_sdk_lib\\src\\xtx_flash_otp.c 0x00000000   Number         0  xtx_flash_otp.o ABSOLUTE
    ..\\..\\..\\src\\app\\mesh\\ali_strip\\app_task.c 0x00000000   Number         0  app_task.o ABSOLUTE
    ..\\..\\..\\src\\app\\mesh\\ali_strip\\light_dlps_ctrl.c 0x00000000   Number         0  light_dlps_ctrl.o ABSOLUTE
    ..\\..\\..\\src\\app\\mesh\\ali_strip\\light_swtimer.c 0x00000000   Number         0  light_swtimer.o ABSOLUTE
    ..\\..\\..\\src\\app\\mesh\\ali_strip\\main.c 0x00000000   Number         0  main.o ABSOLUTE
    ..\\..\\..\\src\\app\\mesh\\ali_strip\\main_app.c 0x00000000   Number         0  main_app.o ABSOLUTE
    ..\\..\\..\\src\\app\\mesh\\ali_strip\\strip_app.c 0x00000000   Number         0  strip_app.o ABSOLUTE
    ..\\..\\..\\src\\app\\mesh\\ali_strip\\strip_timer.c 0x00000000   Number         0  strip_timer.o ABSOLUTE
    ..\\..\\..\\src\\app\\mesh\\lib\\cmd\\data_uart.c 0x00000000   Number         0  data_uart.o ABSOLUTE
    ..\\..\\..\\src\\app\\mesh\\lib\\common\\dfu_updater_app.c 0x00000000   Number         0  dfu_updater_app.o ABSOLUTE
    ..\\..\\..\\src\\app\\mesh\\lib\\common\\light_controller_app.c 0x00000000   Number         0  light_controller_app.o ABSOLUTE
    ..\\..\\..\\src\\app\\mesh\\lib\\common\\light_cwrgb_app.c 0x00000000   Number         0  light_cwrgb_app.o ABSOLUTE
    ..\\..\\..\\src\\app\\mesh\\lib\\common\\light_effect_app.c 0x00000000   Number         0  light_effect_app.o ABSOLUTE
    ..\\..\\..\\src\\app\\mesh\\lib\\common\\light_storage_app.c 0x00000000   Number         0  light_storage_app.o ABSOLUTE
    ..\\..\\..\\src\\app\\mesh\\lib\\common\\mp_cmd_parse.c 0x00000000   Number         0  mp_cmd_parse.o ABSOLUTE
    ..\\..\\..\\src\\app\\mesh\\lib\\core\\friendship_fn.c 0x00000000   Number         0  friendship_fn.o ABSOLUTE
    ..\\..\\..\\src\\app\\mesh\\lib\\core\\friendship_lpn.c 0x00000000   Number         0  friendship_lpn.o ABSOLUTE
    ..\\..\\..\\src\\app\\mesh\\lib\\core\\heartbeat.c 0x00000000   Number         0  heartbeat.o ABSOLUTE
    ..\\..\\..\\src\\app\\mesh\\lib\\core\\mesh_access.c 0x00000000   Number         0  mesh_access.o ABSOLUTE
    ..\\..\\..\\src\\app\\mesh\\lib\\core\\mesh_beacon.c 0x00000000   Number         0  mesh_beacon.o ABSOLUTE
    ..\\..\\..\\src\\app\\mesh\\lib\\core\\mesh_bearer.c 0x00000000   Number         0  mesh_bearer.o ABSOLUTE
    ..\\..\\..\\src\\app\\mesh\\lib\\core\\mesh_common.c 0x00000000   Number         0  mesh_common.o ABSOLUTE
    ..\\..\\..\\src\\app\\mesh\\lib\\core\\mesh_flash.c 0x00000000   Number         0  mesh_flash.o ABSOLUTE
    ..\\..\\..\\src\\app\\mesh\\lib\\core\\mesh_network.c 0x00000000   Number         0  mesh_network.o ABSOLUTE
    ..\\..\\..\\src\\app\\mesh\\lib\\core\\mesh_node.c 0x00000000   Number         0  mesh_node.o ABSOLUTE
    ..\\..\\..\\src\\app\\mesh\\lib\\core\\mesh_provision.c 0x00000000   Number         0  mesh_provision.o ABSOLUTE
    ..\\..\\..\\src\\app\\mesh\\lib\\core\\mesh_rpl.c 0x00000000   Number         0  mesh_rpl.o ABSOLUTE
    ..\\..\\..\\src\\app\\mesh\\lib\\core\\mesh_security.c 0x00000000   Number         0  mesh_security.o ABSOLUTE
    ..\\..\\..\\src\\app\\mesh\\lib\\core\\mesh_service.c 0x00000000   Number         0  mesh_service.o ABSOLUTE
    ..\\..\\..\\src\\app\\mesh\\lib\\core\\mesh_transport.c 0x00000000   Number         0  mesh_transport.o ABSOLUTE
    ..\\..\\..\\src\\app\\mesh\\lib\\core\\provision_adv.c 0x00000000   Number         0  provision_adv.o ABSOLUTE
    ..\\..\\..\\src\\app\\mesh\\lib\\core\\provision_device.c 0x00000000   Number         0  provision_device.o ABSOLUTE
    ..\\..\\..\\src\\app\\mesh\\lib\\core\\proxy_protocol.c 0x00000000   Number         0  proxy_protocol.o ABSOLUTE
    ..\\..\\..\\src\\app\\mesh\\lib\\core\\transport_ping.c 0x00000000   Number         0  transport_ping.o ABSOLUTE
    ..\\..\\..\\src\\app\\mesh\\lib\\gap\\gap_scheduler.c 0x00000000   Number         0  gap_scheduler.o ABSOLUTE
    ..\\..\\..\\src\\app\\mesh\\lib\\model\\ali\\ali_model.c 0x00000000   Number         0  ali_model.o ABSOLUTE
    ..\\..\\..\\src\\app\\mesh\\lib\\model\\configuration_server.c 0x00000000   Number         0  configuration_server.o ABSOLUTE
    ..\\..\\..\\src\\app\\mesh\\lib\\model\\delay_execution.c 0x00000000   Number         0  delay_execution.o ABSOLUTE
    ..\\..\\..\\src\\app\\mesh\\lib\\model\\delay_msg_rsp.c 0x00000000   Number         0  delay_msg_rsp.o ABSOLUTE
    ..\\..\\..\\src\\app\\mesh\\lib\\model\\firmware_update_server.c 0x00000000   Number         0  firmware_update_server.o ABSOLUTE
    ..\\..\\..\\src\\app\\mesh\\lib\\model\\generic_default_transition_time_server.c 0x00000000   Number         0  generic_default_transition_time_server.o ABSOLUTE
    ..\\..\\..\\src\\app\\mesh\\lib\\model\\generic_level_server.c 0x00000000   Number         0  generic_level_server.o ABSOLUTE
    ..\\..\\..\\src\\app\\mesh\\lib\\model\\generic_on_off_server.c 0x00000000   Number         0  generic_on_off_server.o ABSOLUTE
    ..\\..\\..\\src\\app\\mesh\\lib\\model\\generic_power_on_off_server.c 0x00000000   Number         0  generic_power_on_off_server.o ABSOLUTE
    ..\\..\\..\\src\\app\\mesh\\lib\\model\\generic_power_on_off_setup_server.c 0x00000000   Number         0  generic_power_on_off_setup_server.o ABSOLUTE
    ..\\..\\..\\src\\app\\mesh\\lib\\model\\generic_transition_time.c 0x00000000   Number         0  generic_transition_time.o ABSOLUTE
    ..\\..\\..\\src\\app\\mesh\\lib\\model\\health_server.c 0x00000000   Number         0  health_server.o ABSOLUTE
    ..\\..\\..\\src\\app\\mesh\\lib\\model\\light_ctl_server.c 0x00000000   Number         0  light_ctl_server.o ABSOLUTE
    ..\\..\\..\\src\\app\\mesh\\lib\\model\\light_ctl_setup_server.c 0x00000000   Number         0  light_ctl_setup_server.o ABSOLUTE
    ..\\..\\..\\src\\app\\mesh\\lib\\model\\light_ctl_temperature_server.c 0x00000000   Number         0  light_ctl_temperature_server.o ABSOLUTE
    ..\\..\\..\\src\\app\\mesh\\lib\\model\\light_hsl_hue_server.c 0x00000000   Number         0  light_hsl_hue_server.o ABSOLUTE
    ..\\..\\..\\src\\app\\mesh\\lib\\model\\light_hsl_saturation_server.c 0x00000000   Number         0  light_hsl_saturation_server.o ABSOLUTE
    ..\\..\\..\\src\\app\\mesh\\lib\\model\\light_hsl_server.c 0x00000000   Number         0  light_hsl_server.o ABSOLUTE
    ..\\..\\..\\src\\app\\mesh\\lib\\model\\light_hsl_setup_server.c 0x00000000   Number         0  light_hsl_setup_server.o ABSOLUTE
    ..\\..\\..\\src\\app\\mesh\\lib\\model\\light_lightness_server.c 0x00000000   Number         0  light_lightness_server.o ABSOLUTE
    ..\\..\\..\\src\\app\\mesh\\lib\\model\\light_lightness_setup_server.c 0x00000000   Number         0  light_lightness_setup_server.o ABSOLUTE
    ..\\..\\..\\src\\app\\mesh\\lib\\model\\object_transfer_server.c 0x00000000   Number         0  object_transfer_server.o ABSOLUTE
    ..\\..\\..\\src\\app\\mesh\\lib\\model\\realtek\\light_cwrgb_server.c 0x00000000   Number         0  light_cwrgb_server.o ABSOLUTE
    ..\\..\\..\\src\\app\\mesh\\lib\\model\\scene_server.c 0x00000000   Number         0  scene_server.o ABSOLUTE
    ..\\..\\..\\src\\app\\mesh\\lib\\model\\scene_setup_server.c 0x00000000   Number         0  scene_setup_server.o ABSOLUTE
    ..\\..\\..\\src\\app\\mesh\\lib\\platform\\platform_misc.c 0x00000000   Number         0  platform_misc.o ABSOLUTE
    ..\\..\\..\\src\\app\\mesh\\lib\\platform\\reset_watch_dog_timer.c 0x00000000   Number         0  reset_watch_dog_timer.o ABSOLUTE
    ..\\..\\..\\src\\app\\mesh\\lib\\profile\\ais_server.c 0x00000000   Number         0  ais_server.o ABSOLUTE
    ..\\..\\..\\src\\app\\mesh\\lib\\profile\\dfu_client.c 0x00000000   Number         0  dfu_client.o ABSOLUTE
    ..\\..\\..\\src\\app\\mesh\\lib\\profile\\dfu_server.c 0x00000000   Number         0  dfu_server.o ABSOLUTE
    ..\\..\\..\\src\\app\\mesh\\lib\\profile\\ota_server.c 0x00000000   Number         0  ota_server.o ABSOLUTE
    ..\\..\\..\\src\\app\\mesh\\lib\\profile\\provision_server.c 0x00000000   Number         0  provision_server.o ABSOLUTE
    ..\\..\\..\\src\\app\\mesh\\lib\\profile\\provision_service.c 0x00000000   Number         0  provision_service.o ABSOLUTE
    ..\\..\\..\\src\\app\\mesh\\lib\\profile\\proxy_server.c 0x00000000   Number         0  proxy_server.o ABSOLUTE
    ..\\..\\..\\src\\app\\mesh\\lib\\profile\\proxy_service.c 0x00000000   Number         0  proxy_service.o ABSOLUTE
    ..\\..\\..\\src\\app\\mesh\\lib\\utility\\crc8ets.c 0x00000000   Number         0  crc8ets.o ABSOLUTE
    ..\\..\\..\\src\\app\\mesh\\lib\\utility\\dimmable_light.c 0x00000000   Number         0  dimmable_light.o ABSOLUTE
    ..\\..\\..\\src\\app\\mesh\\lib\\utility\\ecc.c 0x00000000   Number         0  ecc.o ABSOLUTE
    ..\\..\\..\\src\\flash\\silent_dfu_flash.c 0x00000000   Number         0  silent_dfu_flash.o ABSOLUTE
    ..\\..\\..\\src\\mcu\\peripheral\\rtl876x_gpio.c 0x00000000   Number         0  rtl876x_gpio.o ABSOLUTE
    ..\\..\\..\\src\\mcu\\peripheral\\rtl876x_io_dlps.c 0x00000000   Number         0  rtl876x_io_dlps.o ABSOLUTE
    ..\\..\\..\\src\\mcu\\peripheral\\rtl876x_rcc.c 0x00000000   Number         0  rtl876x_rcc.o ABSOLUTE
    ..\\..\\..\\src\\mcu\\peripheral\\rtl876x_tim.c 0x00000000   Number         0  rtl876x_tim.o ABSOLUTE
    ..\\..\\..\\src\\mcu\\peripheral\\rtl876x_uart.c 0x00000000   Number         0  rtl876x_uart.o ABSOLUTE
    ..\\..\\..\\src\\mcu\\rtl876x\\arm\\startup_rtl8762c.s 0x00000000   Number         0  startup_rtl8762c.o ABSOLUTE
    ..\\..\\..\\src\\mcu\\rtl876x\\system_rtl8762c.c 0x00000000   Number         0  system_rtl8762c.o ABSOLUTE
    VECTOR                                   0x00200000   Section      244  startup_rtl8762c.o(VECTOR)
    .ram.dataon.data                         0x00207c00   Section        0  system_rtl8762c.o(.ram.dataon.data)
    .ram.dataon.data                         0x00207d24   Section        0  rtl876x_io_dlps.o(.ram.dataon.data)
    GPIO_DLPS_Exit                           0x00207eed   Thumb Code    80  rtl876x_io_dlps.o(.ram.dataon.data)
    UART_DLPS_Enter                          0x00207f3d   Thumb Code    92  rtl876x_io_dlps.o(.ram.dataon.data)
    UART_DLPS_Exit                           0x00207f99   Thumb Code   114  rtl876x_io_dlps.o(.ram.dataon.data)
    .data                                    0x00208028   Section        4  system_rtl8762c.o(.data)
    .data                                    0x0020802c   Section        1  dfu_server.o(.data)
    dfu_server_conn_id                       0x0020802c   Data           1  dfu_server.o(.data)
    .data                                    0x0020802d   Section        2  dfu_client.o(.data)
    dfu_end_hdl_idx                          0x0020802e   Data           1  dfu_client.o(.data)
    .data                                    0x0020802f   Section       46  dis.o(.data)
    dis_pnp_id                               0x00208030   Data           7  dis.o(.data)
    dis_system_id                            0x00208037   Data           8  dis.o(.data)
    dis_ieee_data_list                       0x0020803f   Data          30  dis.o(.data)
    .data                                    0x00208060   Section       16  dimmable_light.o(.data)
    light_PwmControl                         0x00208060   Data          16  dimmable_light.o(.data)
    .data                                    0x00208070   Section      108  overlay_mgr.o(.data)
    overlay_sections                         0x00208070   Data         108  overlay_mgr.o(.data)
    .data                                    0x002080dc   Section       80  light_cwrgb_app.o(.data)
    light_cwrgb                              0x002080dc   Data          80  light_cwrgb_app.o(.data)
    .data                                    0x0020812c   Section        8  strip_app.o(.data)
    .data                                    0x00208134   Section       11  main_app.o(.data)
    .data                                    0x0020813f   Section        1  silent_dfu_flash.o(.data)
    .data                                    0x00208140   Section       16  platform_diagnose.o(.data)
    .data                                    0x00208150   Section       33  gap_scheduler.o(.data)
    scan_resp_data_len                       0x00208150   Data           1  gap_scheduler.o(.data)
    adv_type                                 0x00208151   Data           1  gap_scheduler.o(.data)
    scan_resp_data                           0x00208152   Data          31  gap_scheduler.o(.data)
    .data                                    0x00208171   Section       16  aes_cmac.o(.data)
    .data                                    0x00208181   Section        1  provision_service.o(.data)
    .data                                    0x00208182   Section        1  proxy_service.o(.data)
    .data                                    0x00208183   Section        2  configuration_server.o(.data)
    cfg_server_net_trans_count               0x00208183   Data           1  configuration_server.o(.data)
    cfg_server_net_trans_steps               0x00208184   Data           1  configuration_server.o(.data)
    .bss                                     0x00208188   Section       31  system_rtl8762c.o(.bss)
    euid                                     0x00208198   Data          15  system_rtl8762c.o(.bss)
    .bss                                     0x002081a8   Section      264  rtl876x_io_dlps.o(.bss)
    .bss                                     0x002082b0   Section       76  dfu_server.o(.bss)
    .bss                                     0x002082fc   Section       60  dfu_client.o(.bss)
    dfu_cccd_disc_state                      0x002082fe   Data           1  dfu_client.o(.bss)
    pf_dfu_client_app_cb                     0x00208308   Data           4  dfu_client.o(.bss)
    pf_dfu_client_app_info_cb                0x0020830c   Data           4  dfu_client.o(.bss)
    dfu_hdl_cache                            0x00208318   Data          12  dfu_client.o(.bss)
    .bss                                     0x00208338   Section       56  ota_server.o(.bss)
    DeviceInfo                               0x00208350   Data          12  ota_server.o(.bss)
    version                                  0x0020835c   Data          20  ota_server.o(.bss)
    .bss                                     0x00208370   Section       60  ais_server.o(.bss)
    ais_server_app_cb                        0x00208374   Data           4  ais_server.o(.bss)
    .bss                                     0x002083ac   Section      132  dis.o(.bss)
    pfn_dis_cb                               0x002083b4   Data           4  dis.o(.bss)
    dis_manufacturer_name                    0x002083b8   Data          20  dis.o(.bss)
    dis_model_number                         0x002083cc   Data          20  dis.o(.bss)
    dis_serial_number                        0x002083e0   Data          20  dis.o(.bss)
    dis_hardware_rev                         0x002083f4   Data          20  dis.o(.bss)
    dis_firmware_rev                         0x00208408   Data          20  dis.o(.bss)
    dis_software_rev                         0x0020841c   Data          20  dis.o(.bss)
    .bss                                     0x00208430   Section       80  firmware_update_server.o(.bss)
    .bss                                     0x00208480   Section       96  object_transfer_server.o(.bss)
    .bss                                     0x002084e0   Section        8  generic_transition_time.o(.bss)
    trans_list_head                          0x002084e0   Data           8  generic_transition_time.o(.bss)
    .bss                                     0x002084e8   Section        4  delay_execution.o(.bss)
    delay_list_head                          0x002084e8   Data           4  delay_execution.o(.bss)
    .bss                                     0x002084ec   Section       40  dfu_updater_app.o(.bss)
    .bss                                     0x00208514   Section        8  dimmable_light.o(.bss)
    light_power_on_count                     0x00208514   Data           4  dimmable_light.o(.bss)
    power_on_timer                           0x00208518   Data           4  dimmable_light.o(.bss)
    .bss                                     0x0020851c   Section       12  mp_cmd_parse.o(.bss)
    mp_pkt                                   0x0020851c   Data           4  mp_cmd_parse.o(.bss)
    cmd_table                                0x00208520   Data           4  mp_cmd_parse.o(.bss)
    cmd_table_len                            0x00208524   Data           4  mp_cmd_parse.o(.bss)
    .bss                                     0x00208528   Section        8  overlay_mgr.o(.bss)
    .bss                                     0x00208530   Section       14  light_cwrgb_app.o(.bss)
    light_hsl                                0x00208532   Data           6  light_cwrgb_app.o(.bss)
    light_ctl                                0x00208538   Data           6  light_cwrgb_app.o(.bss)
    .bss                                     0x00208540   Section       12  app_task.o(.bss)
    .bss                                     0x0020854c   Section       40  main.o(.bss)
    health_server_model                      0x0020854c   Data          40  main.o(.bss)
    .bss                                     0x00208574   Section      104  strip_app.o(.bss)
    key_press                                0x00208574   Data           1  strip_app.o(.bss)
    prd_exist                                0x00208575   Data           1  strip_app.o(.bss)
    prd_schedule                             0x00208576   Data           1  strip_app.o(.bss)
    prd_state                                0x00208577   Data           1  strip_app.o(.bss)
    prd_unix_time                            0x00208578   Data           2  strip_app.o(.bss)
    temp_buf                                 0x0020857c   Data           8  strip_app.o(.bss)
    generic_on_off_server                    0x0020858c   Data          40  strip_app.o(.bss)
    ali_server                               0x002085b4   Data          40  strip_app.o(.bss)
    .bss                                     0x002085dc   Section      336  strip_timer.o(.bss)
    .bss                                     0x0020872c   Section       20  main_app.o(.bss)
    temp                                     0x00208738   Data           8  main_app.o(.bss)
    .bss                                     0x00208740   Section        4  silent_dfu_flash.o(.bss)
    .bss                                     0x00208744   Section      244  light_controller_app.o(.bss)
    light_ctl_timer                          0x00208744   Data           4  light_controller_app.o(.bss)
    light_actions                            0x00208748   Data         240  light_controller_app.o(.bss)
    .bss                                     0x00208838   Section        8  light_swtimer.o(.bss)
    unprov_timer                             0x00208838   Data           4  light_swtimer.o(.bss)
    change_scan_param_timer                  0x0020883c   Data           4  light_swtimer.o(.bss)
    .bss                                     0x00208840   Section        4  light_dlps_ctrl.o(.bss)
    .bss                                     0x00208844   Section      196  aes.o(.bss)
    count                                    0x00208844   Data           4  aes.o(.bss)
    count                                    0x00208848   Data           4  aes.o(.bss)
    state                                    0x0020884c   Data           4  aes.o(.bss)
    Key                                      0x00208850   Data           4  aes.o(.bss)
    Iv                                       0x00208854   Data           4  aes.o(.bss)
    RoundKey                                 0x00208858   Data         176  aes.o(.bss)
    .bss                                     0x00208908   Section        8  data_uart.o(.bss)
    data_uart_flag                           0x00208908   Data           1  data_uart.o(.bss)
    pf_data_uart_send_msg                    0x0020890c   Data           4  data_uart.o(.bss)
    .bss                                     0x00208910   Section       96  gap_scheduler.o(.bss)
    start                                    0x00208910   Data           1  gap_scheduler.o(.bss)
    adv_times                                0x00208911   Data           1  gap_scheduler.o(.bss)
    count                                    0x00208914   Data           4  gap_scheduler.o(.bss)
    count                                    0x00208918   Data           4  gap_scheduler.o(.bss)
    .bss                                     0x00208970   Section        4  mesh_access.o(.bss)
    preprocess_func                          0x00208970   Data           4  mesh_access.o(.bss)
    .bss                                     0x00208974   Section        4  mesh_bearer.o(.bss)
    .bss                                     0x00208978   Section       16  mesh_beacon.o(.bss)
    net_key_index                            0x00208978   Data           2  mesh_beacon.o(.bss)
    .bss                                     0x00208988   Section       32  mesh_common.o(.bss)
    mesh_event                               0x00208988   Data           1  mesh_common.o(.bss)
    reboot_reason                            0x00208989   Data           1  mesh_common.o(.bss)
    event_queue_handle                       0x00208990   Data           4  mesh_common.o(.bss)
    mesh_queue_handle                        0x00208994   Data           4  mesh_common.o(.bss)
    reboot_timer                             0x00208998   Data           4  mesh_common.o(.bss)
    tick_timer                               0x0020899c   Data           4  mesh_common.o(.bss)
    tick_handle_timeout                      0x002089a0   Data           4  mesh_common.o(.bss)
    delay_execution_handle_timeout           0x002089a4   Data           4  mesh_common.o(.bss)
    .bss                                     0x002089a8   Section       28  mesh_provision.o(.bss)
    .bss                                     0x002089c4   Section       24  mesh_service.o(.bss)
    net_key_index                            0x002089c6   Data           2  mesh_service.o(.bss)
    net_key_index                            0x002089c8   Data           2  mesh_service.o(.bss)
    mesh_service_id_adv_count                0x002089ca   Data           2  mesh_service.o(.bss)
    mesh_service_adv_timer                   0x002089cc   Data           4  mesh_service.o(.bss)
    .bss                                     0x002089dc   Section      176  mesh_node.o(.bss)
    .bss                                     0x00208a8c   Section       12  friendship_fn.o(.bss)
    .bss                                     0x00208a98   Section       24  mesh_flash.o(.bss)
    .bss                                     0x00208ab0   Section        2  provision_server.o(.bss)
    prov_data_out_cccd                       0x00208ab0   Data           1  provision_server.o(.bss)
    .bss                                     0x00208ab4   Section        4  provision_service.o(.bss)
    .bss                                     0x00208ab8   Section        2  proxy_server.o(.bss)
    proxy_data_out_cccd                      0x00208ab8   Data           1  proxy_server.o(.bss)
    .bss                                     0x00208abc   Section      132  mesh_transport.o(.bss)
    .bss                                     0x00208b40   Section       60  mesh_network.o(.bss)
    .bss                                     0x00208b7c   Section       12  mesh_rpl.o(.bss)
    .bss                                     0x00208b88   Section       76  provision_adv.o(.bss)
    msg_ack_sending_flag                     0x00208b88   Data           1  provision_adv.o(.bss)
    .bss                                     0x00208bd4   Section        8  proxy_protocol.o(.bss)
    .bss                                     0x00208bdc   Section       12  friendship_lpn.o(.bss)
    lpn_ctx                                  0x00208bdc   Data          12  friendship_lpn.o(.bss)
    .bss                                     0x00208be8   Section       36  heartbeat.o(.bss)
    hb_cb                                    0x00208be8   Data           4  heartbeat.o(.bss)
    hb_state                                 0x00208bec   Data          32  heartbeat.o(.bss)
    .bss                                     0x00208c0c   Section       44  configuration_server.o(.bss)
    cfg_server_seg                           0x00208c0c   Data           1  configuration_server.o(.bss)
    .bss                                     0x00208c38   Section        8  transport_ping.o(.bss)
    pf_trans_ping_cb                         0x00208c38   Data           4  transport_ping.o(.bss)
    pf_trans_pong_cb                         0x00208c3c   Data           4  transport_ping.o(.bss)
    .bss                                     0x00208c40   Section      228  rand.o(.bss)
    .app.overlay_a                           0x00208d24   Section        0  system_rtl8762c.o(.app.overlay_a)
    AppUpdateVectorTable                     0x00208d25 * Thumb Code   182  system_rtl8762c.o(.app.overlay_a)
    .app.flash.header                        0x0080e000   Section     1024  system_rtl8762c.o(.app.flash.header)
    __tagsym$$used                           0x0080e000   Number         0  system_rtl8762c.o(.app.flash.header)
    __tagsym$$used                           0x0080e1e0   Number         0  system_rtl8762c.o(.app.flash.header)
    RESET                                    0x0080e400   Section        8  startup_rtl8762c.o(RESET)
    $v0                                      0x0080e400   Number         0  startup_rtl8762c.o(RESET)
    !!!main                                  0x0080e408   Section        8  __main.o(!!!main)
    .ARM.Collect$$_printf_percent$$00000000  0x0080e410   Section        0  _printf_percent.o(.ARM.Collect$$_printf_percent$$00000000)
    .ARM.Collect$$_printf_percent$$0000000C  0x0080e410   Section        6  _printf_x.o(.ARM.Collect$$_printf_percent$$0000000C)
    .ARM.Collect$$_printf_percent$$00000017  0x0080e416   Section        4  _printf_percent_end.o(.ARM.Collect$$_printf_percent$$00000017)
    .ARM.Collect$$libinit$$00000000          0x0080e41a   Section        2  libinit.o(.ARM.Collect$$libinit$$00000000)
    .ARM.Collect$$libinit$$00000001          0x0080e41c   Section        4  libinit2.o(.ARM.Collect$$libinit$$00000001)
    .ARM.Collect$$libinit$$00000004          0x0080e420   Section        0  libinit2.o(.ARM.Collect$$libinit$$00000004)
    .ARM.Collect$$libinit$$0000000A          0x0080e420   Section        0  libinit2.o(.ARM.Collect$$libinit$$0000000A)
    .ARM.Collect$$libinit$$0000000C          0x0080e420   Section        0  libinit2.o(.ARM.Collect$$libinit$$0000000C)
    .ARM.Collect$$libinit$$0000000D          0x0080e420   Section        4  libinit2.o(.ARM.Collect$$libinit$$0000000D)
    .ARM.Collect$$libinit$$0000000E          0x0080e424   Section        0  libinit2.o(.ARM.Collect$$libinit$$0000000E)
    .ARM.Collect$$libinit$$00000011          0x0080e424   Section        0  libinit2.o(.ARM.Collect$$libinit$$00000011)
    .ARM.Collect$$libinit$$00000013          0x0080e424   Section        0  libinit2.o(.ARM.Collect$$libinit$$00000013)
    .ARM.Collect$$libinit$$00000015          0x0080e424   Section        0  libinit2.o(.ARM.Collect$$libinit$$00000015)
    .ARM.Collect$$libinit$$00000017          0x0080e424   Section        0  libinit2.o(.ARM.Collect$$libinit$$00000017)
    .ARM.Collect$$libinit$$00000019          0x0080e424   Section        0  libinit2.o(.ARM.Collect$$libinit$$00000019)
    .ARM.Collect$$libinit$$0000001B          0x0080e424   Section        0  libinit2.o(.ARM.Collect$$libinit$$0000001B)
    .ARM.Collect$$libinit$$0000001D          0x0080e424   Section        0  libinit2.o(.ARM.Collect$$libinit$$0000001D)
    .ARM.Collect$$libinit$$0000001F          0x0080e424   Section        0  libinit2.o(.ARM.Collect$$libinit$$0000001F)
    .ARM.Collect$$libinit$$00000021          0x0080e424   Section        0  libinit2.o(.ARM.Collect$$libinit$$00000021)
    .ARM.Collect$$libinit$$00000023          0x0080e424   Section        0  libinit2.o(.ARM.Collect$$libinit$$00000023)
    .ARM.Collect$$libinit$$00000025          0x0080e424   Section        0  libinit2.o(.ARM.Collect$$libinit$$00000025)
    .ARM.Collect$$libinit$$0000002C          0x0080e424   Section        0  libinit2.o(.ARM.Collect$$libinit$$0000002C)
    .ARM.Collect$$libinit$$0000002E          0x0080e424   Section        0  libinit2.o(.ARM.Collect$$libinit$$0000002E)
    .ARM.Collect$$libinit$$00000030          0x0080e424   Section        0  libinit2.o(.ARM.Collect$$libinit$$00000030)
    .ARM.Collect$$libinit$$00000032          0x0080e424   Section        0  libinit2.o(.ARM.Collect$$libinit$$00000032)
    .ARM.Collect$$libinit$$00000033          0x0080e424   Section        2  libinit2.o(.ARM.Collect$$libinit$$00000033)
    .ARM.Collect$$rtentry$$00000000          0x0080e426   Section        0  __rtentry.o(.ARM.Collect$$rtentry$$00000000)
    .ARM.Collect$$rtentry$$00000002          0x0080e426   Section        0  __rtentry2.o(.ARM.Collect$$rtentry$$00000002)
    .ARM.Collect$$rtentry$$00000004          0x0080e426   Section        6  __rtentry4.o(.ARM.Collect$$rtentry$$00000004)
    .ARM.Collect$$rtentry$$00000009          0x0080e42c   Section        0  __rtentry2.o(.ARM.Collect$$rtentry$$00000009)
    .ARM.Collect$$rtentry$$0000000A          0x0080e42c   Section        4  __rtentry2.o(.ARM.Collect$$rtentry$$0000000A)
    .ARM.Collect$$rtentry$$0000000C          0x0080e430   Section        0  __rtentry2.o(.ARM.Collect$$rtentry$$0000000C)
    .ARM.Collect$$rtentry$$0000000D          0x0080e430   Section        8  __rtentry2.o(.ARM.Collect$$rtentry$$0000000D)
    .app.flash.text                          0x0080e438   Section        0  system_rtl8762c.o(.app.flash.text)
    .app.flash.text                          0x0080e6c8   Section        0  main.o(.app.flash.text)
    .app.flash.text                          0x0080e6d0   Section        0  gap_config.o(.app.flash.text)
    .emb_text                                0x0080e7d0   Section       52  rand.o(.emb_text)
    .text                                    0x0080e804   Section       80  startup_rtl8762c.o(.text)
    $v0                                      0x0080e804   Number         0  startup_rtl8762c.o(.text)
    DEFAULT_HANDLER_TXT                      0x0080e816   Data           0  startup_rtl8762c.o(.text)
    .text                                    0x0080e854   Section        0  system_rtl8762c.o(.text)
    NVIC_DisableIRQ                          0x0080e957   Thumb Code    22  system_rtl8762c.o(.text)
    .text                                    0x0080e9bc   Section        0  rtl876x_io_dlps.o(.text)
    .text                                    0x0080e9dc   Section        0  rtl876x_rcc.o(.text)
    .text                                    0x0080ed34   Section        0  rtl876x_tim.o(.text)
    .text                                    0x0080eed0   Section        0  rtl876x_uart.o(.text)
    .text                                    0x0080f0fc   Section        0  rtl876x_gpio.o(.text)
    .text                                    0x0080f280   Section        0  dfu_server.o(.text)
    dfu_server_timeout_cb                    0x0080f33f   Thumb Code    56  dfu_server.o(.text)
    .text                                    0x0080fdbc   Section        0  dfu_client.o(.text)
    dfu_client_disc_state_cb                 0x0080ff77   Thumb Code   262  dfu_client.o(.text)
    dfu_client_disc_result_cb                0x0081007d   Thumb Code   184  dfu_client.o(.text)
    dfu_client_read_result_cb                0x00810135   Thumb Code   152  dfu_client.o(.text)
    dfu_client_write_result_cb               0x008101cd   Thumb Code    68  dfu_client.o(.text)
    dfu_client_notify_indicate_cb            0x00810211   Thumb Code    58  dfu_client.o(.text)
    dfu_client_init                          0x0081024b   Thumb Code    56  dfu_client.o(.text)
    dfu_client_switch_next_descriptor        0x00810b35   Thumb Code    22  dfu_client.o(.text)
    .text                                    0x00810b9c   Section        0  ota_server.o(.text)
    .text                                    0x00810e38   Section        0  ais_server.o(.text)
    ais_server_timeout_cb                    0x00810e39   Thumb Code    60  ais_server.o(.text)
    .text                                    0x0081192c   Section        0  dis.o(.text)
    .text                                    0x00811bb0   Section        0  health_server.o(.text)
    health_server_fill_fault                 0x00811bb1   Thumb Code    58  health_server.o(.text)
    health_server_fault_count_internal       0x00811beb   Thumb Code    86  health_server.o(.text)
    health_curt_stat                         0x00811c41   Thumb Code   106  health_server.o(.text)
    health_fault_stat                        0x00811cab   Thumb Code    88  health_server.o(.text)
    health_server_publish                    0x00811d03   Thumb Code    72  health_server.o(.text)
    health_server_receive                    0x00811e01   Thumb Code   400  health_server.o(.text)
    health_server_send                       0x00811fe3   Thumb Code    52  health_server.o(.text)
    health_period_stat                       0x00812017   Thumb Code    30  health_server.o(.text)
    health_attn_stat                         0x00812035   Thumb Code    60  health_server.o(.text)
    .text                                    0x00812070   Section        0  firmware_update_server.o(.text)
    fw_update_server_apply                   0x00812129   Thumb Code    46  firmware_update_server.o(.text)
    fw_update_server_send                    0x008124ef   Thumb Code    48  firmware_update_server.o(.text)
    .text                                    0x00812528   Section        0  object_transfer_server.o(.text)
    obj_transfer_server_send                 0x00812c91   Thumb Code    48  object_transfer_server.o(.text)
    .text                                    0x00812cdc   Section        0  generic_on_off_server.o(.text)
    generic_on_off_stat                      0x00812cdd   Thumb Code    90  generic_on_off_server.o(.text)
    generic_on_off_trans_step_change         0x00812d65   Thumb Code    64  generic_on_off_server.o(.text)
    generic_on_off_process                   0x00812da5   Thumb Code   108  generic_on_off_server.o(.text)
    generic_on_off_delay_execution           0x00812e11   Thumb Code    44  generic_on_off_server.o(.text)
    generic_on_off_server_receive            0x00812e3d   Thumb Code   314  generic_on_off_server.o(.text)
    generic_on_off_server_publish            0x00812f77   Thumb Code    36  generic_on_off_server.o(.text)
    generic_on_off_state_change_publish      0x00813013   Thumb Code    18  generic_on_off_server.o(.text)
    get_present_on_off                       0x00813025   Thumb Code    20  generic_on_off_server.o(.text)
    .text                                    0x0081305c   Section        0  generic_transition_time.o(.text)
    trans_time_insert                        0x00813075   Thumb Code   196  generic_transition_time.o(.text)
    trans_time_timeout_handle                0x00813139   Thumb Code   186  generic_transition_time.o(.text)
    .text                                    0x008132b4   Section        0  delay_execution.o(.text)
    delay_execution_timeout_handle           0x008132d3   Thumb Code    78  delay_execution.o(.text)
    .text                                    0x00813464   Section        0  ali_model.o(.text)
    .text                                    0x00813728   Section        0  dfu_updater_app.o(.text)
    .text                                    0x00813a0c   Section        0  dimmable_light.o(.text)
    light_power_on_timeout_cb                0x00813c95   Thumb Code    28  dimmable_light.o(.text)
    .text                                    0x00813d30   Section        0  mp_cmd_parse.o(.text)
    mp_cmd_response                          0x00813d31   Thumb Code    96  mp_cmd_parse.o(.text)
    .text                                    0x00813f50   Section        0  overlay_mgr.o(.text)
    .text                                    0x00813fcc   Section        0  light_effect_app.o(.text)
    turn_on_light                            0x00814127   Thumb Code    22  light_effect_app.o(.text)
    .text                                    0x00814140   Section        0  light_storage_app.o(.text)
    .text                                    0x008141d4   Section        0  light_cwrgb_app.o(.text)
    hue_2_rgb                                0x008141d5   Thumb Code   120  light_cwrgb_app.o(.text)
    GPIO_WriteBit                            0x0081498f   Thumb Code    18  light_cwrgb_app.o(.text)
    .text                                    0x008149b4   Section        0  app_task.o(.text)
    .text                                    0x00814b24   Section        0  main.o(.text)
    .text                                    0x00814e30   Section        0  strip_app.o(.text)
    generic_on_off_server_data               0x00814e31   Thumb Code    88  strip_app.o(.text)
    .text                                    0x008155ac   Section        0  mp_cmd.o(.text)
    mp_cmd_update_ali_data                   0x008155ad   Thumb Code    66  mp_cmd.o(.text)
    .text                                    0x00815620   Section        0  user_data.o(.text)
    .text                                    0x008156c8   Section        0  strip_timer.o(.text)
    RTC_ResetCounter                         0x00815b11   Thumb Code    46  strip_timer.o(.text)
    .text                                    0x00815b44   Section        0  main_app.o(.text)
    app_dis_srv_cb                           0x008162a5   Thumb Code   472  main_app.o(.text)
    .text                                    0x008167ac   Section        0  silent_dfu_flash.o(.text)
    .text                                    0x00816b74   Section        0  light_controller_app.o(.text)
    request_action                           0x00816b75   Thumb Code    82  light_controller_app.o(.text)
    light_ctl_timeout_handle                 0x00816bc7   Thumb Code   378  light_controller_app.o(.text)
    release_action                           0x00816f9b   Thumb Code    16  light_controller_app.o(.text)
    light_controller_timer_start             0x00816fab   Thumb Code    30  light_controller_app.o(.text)
    .text                                    0x00816fcc   Section        0  light_swtimer.o(.text)
    unprov_timeout_cb                        0x00816fcd   Thumb Code    22  light_swtimer.o(.text)
    change_scan_param_timeout_cb             0x0081706f   Thumb Code    22  light_swtimer.o(.text)
    .text                                    0x00817154   Section        0  light_dlps_ctrl.o(.text)
    .text                                    0x00817198   Section        0  gap_lib.o(.text)
    .text                                    0x00817254   Section        0  gap_lib_patch.o(.text)
    .text                                    0x0081779c   Section        0  platform_os.o(.text)
    .text                                    0x00817850   Section        0  platform_misc.o(.text)
    .text                                    0x00817a78   Section        0  platform_diagnose.o(.text)
    .text                                    0x00817a90   Section        0  aes.o(.text)
    KeyExpansion                             0x00817a91   Thumb Code   180  aes.o(.text)
    AddRoundKey                              0x00817b45   Thumb Code    56  aes.o(.text)
    SubBytes                                 0x00817b7d   Thumb Code    40  aes.o(.text)
    ShiftRows                                0x00817ba5   Thumb Code    54  aes.o(.text)
    MixColumns                               0x00817bdb   Thumb Code   136  aes.o(.text)
    InvMixColumns                            0x00817c63   Thumb Code   984  aes.o(.text)
    InvSubBytes                              0x0081803b   Thumb Code    40  aes.o(.text)
    InvShiftRows                             0x00818063   Thumb Code    54  aes.o(.text)
    Cipher                                   0x00818099   Thumb Code    52  aes.o(.text)
    InvCipher                                0x008180cd   Thumb Code    52  aes.o(.text)
    xtime                                    0x00818247   Thumb Code    18  aes.o(.text)
    BlockCopy                                0x00818259   Thumb Code    16  aes.o(.text)
    XorWithIv                                0x00818269   Thumb Code    26  aes.o(.text)
    .text                                    0x0081828c   Section        0  data_uart.o(.text)
    data_uart_vsprintf                       0x008182a7   Thumb Code   460  data_uart.o(.text)
    data_uart_send_char                      0x0081862b   Thumb Code    30  data_uart.o(.text)
    .text                                    0x0081867c   Section        0  gap_scheduler.o(.text)
    gap_sched_interwave_scan_start           0x008187f3   Thumb Code    70  gap_scheduler.o(.text)
    .text                                    0x00819224   Section        0  mesh_access.o(.text)
    .text                                    0x0081952c   Section        0  mesh_bearer.o(.text)
    .text                                    0x008198b8   Section        0  mesh_beacon.o(.text)
    beacon_timeout_cb                        0x00819b1f   Thumb Code    64  mesh_beacon.o(.text)
    .text                                    0x00819e84   Section        0  mesh_common.o(.text)
    tick_timer_cb                            0x0081a17b   Thumb Code    54  mesh_common.o(.text)
    .text                                    0x0081a2bc   Section        0  mesh_provision.o(.text)
    .text                                    0x0081ad0c   Section        0  mesh_service.o(.text)
    mesh_service_timeout_cb                  0x0081ae8d   Thumb Code    54  mesh_service.o(.text)
    .text                                    0x0081b2a8   Section        0  mesh_node.o(.text)
    .text                                    0x0081cf54   Section        0  friendship_fn.o(.text)
    frnd_clear                               0x0081cff9   Thumb Code   184  friendship_fn.o(.text)
    fn_timeout_cb                            0x0081d28b   Thumb Code    18  friendship_fn.o(.text)
    fn_handle_frnd_poll                      0x0081de73   Thumb Code   768  friendship_fn.o(.text)
    iv_index_get_tx_value                    0x0081e90d   Thumb Code    16  friendship_fn.o(.text)
    .text                                    0x0081e924   Section        0  provision_device.o(.text)
    prov_send                                0x0081e925   Thumb Code   134  provision_device.o(.text)
    prov_handle_invite                       0x0081ea01   Thumb Code   232  provision_device.o(.text)
    prov_handle_data                         0x0081eae9   Thumb Code   428  provision_device.o(.text)
    prov_handle_start                        0x0081ef8d   Thumb Code   138  provision_device.o(.text)
    prov_handle_public_key                   0x0081f017   Thumb Code   174  provision_device.o(.text)
    prov_handle_confirmation                 0x0081f0c5   Thumb Code   160  provision_device.o(.text)
    prov_handle_random                       0x0081f165   Thumb Code   100  provision_device.o(.text)
    .text                                    0x0081f1cc   Section        0  mesh_flash.o(.text)
    mesh_flash_init                          0x0081f5e5   Thumb Code   410  mesh_flash.o(.text)
    .text                                    0x0082006c   Section        0  gap_vendor_cmd.o(.text)
    .text                                    0x00820358   Section        0  platform_list.o(.text)
    .text                                    0x008203cc   Section        0  aes_cmac.o(.text)
    .text                                    0x00820540   Section        0  ccm.o(.text)
    ccm_auth_crypt                           0x00820541   Thumb Code   690  ccm.o(.text)
    .text                                    0x0082087c   Section        0  ecc.o(.text)
    vli_cmp                                  0x0082087d   Thumb Code    52  ecc.o(.text)
    vli_lshift                               0x008208b1   Thumb Code    78  ecc.o(.text)
    vli_rshift1                              0x008208ff   Thumb Code    54  ecc.o(.text)
    vli_add                                  0x00820935   Thumb Code    88  ecc.o(.text)
    vli_sub                                  0x0082098d   Thumb Code    88  ecc.o(.text)
    mul_64_64                                0x008209e5   Thumb Code   106  ecc.o(.text)
    add_128_128                              0x00820a4f   Thumb Code    62  ecc.o(.text)
    vli_square                               0x00820a8d   Thumb Code   246  ecc.o(.text)
    vli_mod_add                              0x00820b83   Thumb Code    40  ecc.o(.text)
    vli_mmod_fast                            0x00820bab   Thumb Code   410  ecc.o(.text)
    vli_mod_inv                              0x00820d45   Thumb Code   300  ecc.o(.text)
    ecc_point_double_jacobian                0x00820e71   Thumb Code   274  ecc.o(.text)
    apply_z                                  0x00820f83   Thumb Code    52  ecc.o(.text)
    xycz_add                                 0x00820fb7   Thumb Code   162  ecc.o(.text)
    xycz_add_c                               0x00821059   Thumb Code   238  ecc.o(.text)
    ecc_point_mult                           0x00821147   Thumb Code   354  ecc.o(.text)
    ecc_bytes2native                         0x008212a9   Thumb Code    80  ecc.o(.text)
    vli_clear                                0x00821451   Thumb Code    22  ecc.o(.text)
    vli_is_zero                              0x00821467   Thumb Code    28  ecc.o(.text)
    vli_is_zero_xy                           0x00821483   Thumb Code    28  ecc.o(.text)
    vli_test_bit                             0x0082149f   Thumb Code    30  ecc.o(.text)
    vli_set                                  0x008214bd   Thumb Code    28  ecc.o(.text)
    vli_mod_sub                              0x008214d9   Thumb Code    36  ecc.o(.text)
    vli_mod_mult_fast                        0x008214fd   Thumb Code    24  ecc.o(.text)
    vli_mod_square_fast                      0x00821515   Thumb Code    22  ecc.o(.text)
    ecc_native2bytes                         0x0082152b   Thumb Code    88  ecc.o(.text)
    vli_mult                                 0x00821583   Thumb Code   180  ecc.o(.text)
    .text                                    0x00821638   Section        0  provision_server.o(.text)
    prov_server_handle_disconnect            0x00821715   Thumb Code    34  provision_server.o(.text)
    .text                                    0x008217b4   Section        0  provision_service.o(.text)
    .text                                    0x0082184c   Section        0  proxy_server.o(.text)
    proxy_server_handle_disconnect           0x00821931   Thumb Code    34  proxy_server.o(.text)
    .text                                    0x008219d0   Section        0  proxy_service.o(.text)
    .text                                    0x00821a7c   Section        0  mesh_transport.o(.text)
    trans_timeout_cb                         0x00821a89   Thumb Code    30  mesh_transport.o(.text)
    iv_index_get_tx_value                    0x0082327b   Thumb Code    16  mesh_transport.o(.text)
    .text                                    0x00823294   Section        0  mesh_network.o(.text)
    .text                                    0x00823aac   Section        0  mesh_security.o(.text)
    .text                                    0x00824924   Section        0  mesh_rpl.o(.text)
    .text                                    0x00824b44   Section        0  provision_adv.o(.text)
    pb_adv_timeout_cb                        0x00824b45   Thumb Code    22  provision_adv.o(.text)
    link_open                                0x00824b5b   Thumb Code   110  provision_adv.o(.text)
    link_ack                                 0x00824bc9   Thumb Code    90  provision_adv.o(.text)
    link_close                               0x00824c23   Thumb Code   106  provision_adv.o(.text)
    msg_send                                 0x00824c8d   Thumb Code   282  provision_adv.o(.text)
    msg_ack_done                             0x00824da7   Thumb Code    10  provision_adv.o(.text)
    msg_ack                                  0x00824db1   Thumb Code   168  provision_adv.o(.text)
    pb_adv_clear                             0x00824e59   Thumb Code    44  provision_adv.o(.text)
    .text                                    0x008257e0   Section        0  proxy_protocol.o(.text)
    proxy_rx_timeout_cb                      0x0082605b   Thumb Code    24  proxy_protocol.o(.text)
    .text                                    0x008262a4   Section        0  friendship_lpn.o(.text)
    frnd_clear                               0x008265ff   Thumb Code   208  friendship_lpn.o(.text)
    lpn_timeout_cb                           0x008266cf   Thumb Code    18  friendship_lpn.o(.text)
    lpn_ctx_clear                            0x00826c95   Thumb Code    54  friendship_lpn.o(.text)
    iv_index_get_tx_value                    0x008271cb   Thumb Code    16  friendship_lpn.o(.text)
    .text                                    0x008271fc   Section        0  heartbeat.o(.text)
    .text                                    0x00827690   Section        0  configuration_server.o(.text)
    cfg_server_send                          0x00827691   Thumb Code   106  configuration_server.o(.text)
    cfg_server_model_sync_by_app_key         0x00827d17   Thumb Code    52  configuration_server.o(.text)
    .text                                    0x0082932c   Section        0  crc8ets.o(.text)
    .text                                    0x00829374   Section        0  transport_ping.o(.text)
    iv_index_get_tx_value                    0x00829537   Thumb Code    16  transport_ping.o(.text)
    .text                                    0x0082955c   Section       38  llshl.o(.text)
    .text                                    0x00829582   Section       38  llushr.o(.text)
    .text                                    0x008295a8   Section        0  noretval__2sprintf.o(.text)
    .text                                    0x008295d0   Section        0  _printf_pad.o(.text)
    .text                                    0x00829620   Section        0  _printf_hex_int.o(.text)
    .text                                    0x00829678   Section        0  __printf_flags_wp.o(.text)
    .text                                    0x008297b0   Section        0  rand.o(.text)
    .text                                    0x008297ec   Section        0  strncmp.o(.text)
    .text                                    0x00829882   Section        0  _printf_intcommon.o(.text)
    .text                                    0x00829934   Section        0  _printf_char_common.o(.text)
    _printf_input_char                       0x00829935   Thumb Code    10  _printf_char_common.o(.text)
    .text                                    0x00829964   Section        0  _sputc.o(.text)
    i.UpdateMAC                              0x00829970   Section        0  rtl876x_lib_platform.o(i.UpdateMAC)
    i.__hardfp_ceil                          0x008299d0   Section        0  ceil.o(i.__hardfp_ceil)
    i._cfg_check_header_valid                0x00829ae8   Section        0  rtl876x_lib_cfg_int.o(i._cfg_check_header_valid)
    _cfg_check_header_valid                  0x00829ae9   Thumb Code    28  rtl876x_lib_cfg_int.o(i._cfg_check_header_valid)
    i._cfg_write_to_flash                    0x00829b34   Section        0  rtl876x_lib_cfg_int.o(i._cfg_write_to_flash)
    _cfg_write_to_flash                      0x00829b35   Thumb Code   116  rtl876x_lib_cfg_int.o(i._cfg_write_to_flash)
    i._is_digit                              0x00829bc4   Section        0  __printf_wp.o(i._is_digit)
    i.cfg_add_item                           0x00829bd4   Section        0  rtl876x_lib_cfg_int.o(i.cfg_add_item)
    i.cfg_find_item                          0x00829d08   Section        0  rtl876x_lib_cfg_int.o(i.cfg_find_item)
    i.flash_lock_new                         0x00829e10   Section        0  rtl8762c_lib_flash.o(i.flash_lock_new)
    i.flash_set_block_protect_locked         0x00829e5c   Section        0  rtl8762c_lib_flash.o(i.flash_set_block_protect_locked)
    i.flash_sw_protect_unlock_by_addr_locked 0x00829e82   Section        0  rtl8762c_lib_flash.o(i.flash_sw_protect_unlock_by_addr_locked)
    i.flash_sw_protect_unlock_by_addr_new    0x00829eac   Section        0  rtl8762c_lib_flash.o(i.flash_sw_protect_unlock_by_addr_new)
    i.flash_unlock_new                       0x00829f60   Section        0  rtl8762c_lib_flash.o(i.flash_unlock_new)
    x$fpl$d2f                                0x00829f98   Section       98  d2f.o(x$fpl$d2f)
    $v0                                      0x00829f98   Number         0  d2f.o(x$fpl$d2f)
    x$fpl$dadd                               0x00829ffc   Section      336  daddsub_clz.o(x$fpl$dadd)
    $v0                                      0x00829ffc   Number         0  daddsub_clz.o(x$fpl$dadd)
    _dadd1                                   0x0082a00d   Thumb Code     0  daddsub_clz.o(x$fpl$dadd)
    x$fpl$dcmpinf                            0x0082a14c   Section       24  dcmpi.o(x$fpl$dcmpinf)
    $v0                                      0x0082a14c   Number         0  dcmpi.o(x$fpl$dcmpinf)
    x$fpl$ddiv                               0x0082a164   Section      688  ddiv.o(x$fpl$ddiv)
    $v0                                      0x0082a164   Number         0  ddiv.o(x$fpl$ddiv)
    ddiv_entry                               0x0082a16b   Thumb Code     0  ddiv.o(x$fpl$ddiv)
    x$fpl$dfixu                              0x0082a414   Section       90  dfixu.o(x$fpl$dfixu)
    $v0                                      0x0082a414   Number         0  dfixu.o(x$fpl$dfixu)
    x$fpl$dflt                               0x0082a46e   Section       46  dflt_clz.o(x$fpl$dflt)
    $v0                                      0x0082a46e   Number         0  dflt_clz.o(x$fpl$dflt)
    x$fpl$dfltu                              0x0082a49c   Section       38  dflt_clz.o(x$fpl$dfltu)
    $v0                                      0x0082a49c   Number         0  dflt_clz.o(x$fpl$dfltu)
    x$fpl$dleqf                              0x0082a4c4   Section      120  dleqf.o(x$fpl$dleqf)
    $v0                                      0x0082a4c4   Number         0  dleqf.o(x$fpl$dleqf)
    x$fpl$dmul                               0x0082a53c   Section      340  dmul.o(x$fpl$dmul)
    $v0                                      0x0082a53c   Number         0  dmul.o(x$fpl$dmul)
    x$fpl$dnaninf                            0x0082a690   Section      156  dnaninf.o(x$fpl$dnaninf)
    $v0                                      0x0082a690   Number         0  dnaninf.o(x$fpl$dnaninf)
    x$fpl$dretinf                            0x0082a72c   Section       12  dretinf.o(x$fpl$dretinf)
    $v0                                      0x0082a72c   Number         0  dretinf.o(x$fpl$dretinf)
    x$fpl$drleqf                             0x0082a738   Section      108  drleqf.o(x$fpl$drleqf)
    $v0                                      0x0082a738   Number         0  drleqf.o(x$fpl$drleqf)
    x$fpl$drsb                               0x0082a7a4   Section       22  daddsub_clz.o(x$fpl$drsb)
    $v0                                      0x0082a7a4   Number         0  daddsub_clz.o(x$fpl$drsb)
    x$fpl$dsub                               0x0082a7bc   Section      468  daddsub_clz.o(x$fpl$dsub)
    $v0                                      0x0082a7bc   Number         0  daddsub_clz.o(x$fpl$dsub)
    _dsub1                                   0x0082a7cd   Thumb Code     0  daddsub_clz.o(x$fpl$dsub)
    x$fpl$f2d                                0x0082a990   Section       86  f2d.o(x$fpl$f2d)
    $v0                                      0x0082a990   Number         0  f2d.o(x$fpl$f2d)
    x$fpl$fnaninf                            0x0082a9e6   Section      140  fnaninf.o(x$fpl$fnaninf)
    $v0                                      0x0082a9e6   Number         0  fnaninf.o(x$fpl$fnaninf)
    x$fpl$fpinit                             0x0082aa72   Section       10  fpinit.o(x$fpl$fpinit)
    $v0                                      0x0082aa72   Number         0  fpinit.o(x$fpl$fpinit)
    x$fpl$fretinf                            0x0082aa7c   Section       10  fretinf.o(x$fpl$fretinf)
    $v0                                      0x0082aa7c   Number         0  fretinf.o(x$fpl$fretinf)
    x$fpl$usenofp                            0x0082aa86   Section        0  usenofp.o(x$fpl$usenofp)
    .constdata                               0x0082aa88   Section       32  system_rtl8762c.o(.constdata)
    .constdata                               0x0082aaa8   Section      268  system_rtl8762c.o(.constdata)
    __func__                                 0x0082aaa8   Data           7  system_rtl8762c.o(.constdata)
    __func__                                 0x0082aaaf   Data           7  system_rtl8762c.o(.constdata)
    __func__                                 0x0082aab6   Data           8  system_rtl8762c.o(.constdata)
    .constdata                               0x0082abb4   Section       16  dfu_server.o(.constdata)
    .constdata                               0x0082abc4   Section      221  dfu_server.o(.constdata)
    __func__                                 0x0082ac78   Data          22  dfu_server.o(.constdata)
    __func__                                 0x0082ac8e   Data          19  dfu_server.o(.constdata)
    .constdata                               0x0082aca4   Section       78  dfu_client.o(.constdata)
    __func__                                 0x0082acdc   Data          22  dfu_client.o(.constdata)
    .constdata                               0x0082acf2   Section       16  ota_server.o(.constdata)
    .constdata                               0x0082ad04   Section      544  ota_server.o(.constdata)
    .constdata                               0x0082af24   Section      472  ais_server.o(.constdata)
    ais_image_id                             0x0082af24   Data           4  ais_server.o(.constdata)
    ais_iv                                   0x0082af28   Data          16  ais_server.o(.constdata)
    __func__                                 0x0082b0b0   Data          22  ais_server.o(.constdata)
    __func__                                 0x0082b0ec   Data          16  ais_server.o(.constdata)
    .constdata                               0x0082b0fc   Section      544  dis.o(.constdata)
    dis_attr_tbl                             0x0082b0fc   Data         532  dis.o(.constdata)
    .constdata                               0x0082b31c   Section       53  health_server.o(.constdata)
    __func__                                 0x0082b31c   Data          17  health_server.o(.constdata)
    __func__                                 0x0082b32d   Data          18  health_server.o(.constdata)
    __func__                                 0x0082b33f   Data          18  health_server.o(.constdata)
    .constdata                               0x0082b351   Section       55  firmware_update_server.o(.constdata)
    __func__                                 0x0082b351   Data          13  firmware_update_server.o(.constdata)
    __func__                                 0x0082b35e   Data          42  firmware_update_server.o(.constdata)
    .constdata                               0x0082b388   Section      109  object_transfer_server.o(.constdata)
    __func__                                 0x0082b388   Data          15  object_transfer_server.o(.constdata)
    __func__                                 0x0082b397   Data          41  object_transfer_server.o(.constdata)
    __func__                                 0x0082b3c0   Data          28  object_transfer_server.o(.constdata)
    __func__                                 0x0082b3dc   Data          25  object_transfer_server.o(.constdata)
    .constdata                               0x0082b3f5   Section       26  generic_on_off_server.o(.constdata)
    __func__                                 0x0082b3f5   Data          26  generic_on_off_server.o(.constdata)
    .constdata                               0x0082b410   Section       26  generic_transition_time.o(.constdata)
    __func__                                 0x0082b418   Data          18  generic_transition_time.o(.constdata)
    .constdata                               0x0082b42a   Section       28  delay_execution.o(.constdata)
    __func__                                 0x0082b42a   Data          28  delay_execution.o(.constdata)
    .constdata                               0x0082b446   Section       63  ali_model.o(.constdata)
    __func__                                 0x0082b446   Data          13  ali_model.o(.constdata)
    __func__                                 0x0082b453   Data          17  ali_model.o(.constdata)
    __func__                                 0x0082b464   Data          13  ali_model.o(.constdata)
    __func__                                 0x0082b471   Data          20  ali_model.o(.constdata)
    .constdata                               0x0082b485   Section       12  mp_cmd_parse.o(.constdata)
    __func__                                 0x0082b485   Data          12  mp_cmd_parse.o(.constdata)
    .constdata                               0x0082b494   Section        4  light_effect_app.o(.constdata)
    .constdata                               0x0082b498   Section       12  light_storage_app.o(.constdata)
    .constdata                               0x0082b4a4   Section       56  app_task.o(.constdata)
    __func__                                 0x0082b4a4   Data          24  app_task.o(.constdata)
    __func__                                 0x0082b4bc   Data          18  app_task.o(.constdata)
    __func__                                 0x0082b4ce   Data          14  app_task.o(.constdata)
    .constdata                               0x0082b4dc   Section       50  main.o(.constdata)
    .constdata                               0x0082b50e   Section       23  strip_app.o(.constdata)
    strip_sub_addr                           0x0082b50e   Data           4  strip_app.o(.constdata)
    __func__                                 0x0082b512   Data          19  strip_app.o(.constdata)
    .constdata                               0x0082b528   Section       16  mp_cmd.o(.constdata)
    .constdata                               0x0082b538   Section       16  main_app.o(.constdata)
    .constdata                               0x0082b548   Section       20  platform_os.o(.constdata)
    __func__                                 0x0082b548   Data          20  platform_os.o(.constdata)
    .constdata                               0x0082b55c   Section      767  aes.o(.constdata)
    sbox                                     0x0082b55c   Data         256  aes.o(.constdata)
    rsbox                                    0x0082b65c   Data         256  aes.o(.constdata)
    Rcon                                     0x0082b75c   Data         255  aes.o(.constdata)
    .constdata                               0x0082b85c   Section       96  data_uart.o(.constdata)
    baudrate_param                           0x0082b85c   Data          96  data_uart.o(.constdata)
    .constdata                               0x0082b8bc   Section       37  gap_scheduler.o(.constdata)
    __func__                                 0x0082b8bc   Data          22  gap_scheduler.o(.constdata)
    __func__                                 0x0082b8d2   Data          15  gap_scheduler.o(.constdata)
    .constdata                               0x0082b8e1   Section       21  mesh_bearer.o(.constdata)
    __func__                                 0x0082b8e1   Data          21  mesh_bearer.o(.constdata)
    .constdata                               0x0082b8f6   Section       42  mesh_common.o(.constdata)
    __func__                                 0x0082b8f6   Data          20  mesh_common.o(.constdata)
    __func__                                 0x0082b90a   Data          22  mesh_common.o(.constdata)
    .constdata                               0x0082b920   Section       14  mesh_provision.o(.constdata)
    __func__                                 0x0082b920   Data          14  mesh_provision.o(.constdata)
    .constdata                               0x0082b92e   Section       11  mesh_service.o(.constdata)
    mesh_service_adv_data_header             0x0082b92e   Data          11  mesh_service.o(.constdata)
    .constdata                               0x0082b93c   Section      147  mesh_node.o(.constdata)
    pub_period_resolution_value              0x0082b93c   Data          16  mesh_node.o(.constdata)
    __func__                                 0x0082b94c   Data          15  mesh_node.o(.constdata)
    __func__                                 0x0082b95b   Data          16  mesh_node.o(.constdata)
    __func__                                 0x0082b96b   Data          15  mesh_node.o(.constdata)
    __func__                                 0x0082b97a   Data          20  mesh_node.o(.constdata)
    __func__                                 0x0082b98e   Data          15  mesh_node.o(.constdata)
    __func__                                 0x0082b99d   Data          15  mesh_node.o(.constdata)
    __func__                                 0x0082b9ac   Data          21  mesh_node.o(.constdata)
    __func__                                 0x0082b9c1   Data          14  mesh_node.o(.constdata)
    .constdata                               0x0082b9cf   Section       23  friendship_fn.o(.constdata)
    __func__                                 0x0082b9cf   Data           8  friendship_fn.o(.constdata)
    __func__                                 0x0082b9d7   Data          15  friendship_fn.o(.constdata)
    .constdata                               0x0082b9e8   Section        4  provision_device.o(.constdata)
    .constdata                               0x0082b9ec   Section       53  mesh_flash.o(.constdata)
    __func__                                 0x0082b9ec   Data          17  mesh_flash.o(.constdata)
    __func__                                 0x0082b9fd   Data          19  mesh_flash.o(.constdata)
    __func__                                 0x0082ba10   Data          17  mesh_flash.o(.constdata)
    .constdata                               0x0082ba21   Section       46  rtl876x_lib_cfg_int.o(.constdata)
    __func__                                 0x0082ba21   Data          20  rtl876x_lib_cfg_int.o(.constdata)
    __func__                                 0x0082ba35   Data          13  rtl876x_lib_cfg_int.o(.constdata)
    __func__                                 0x0082ba42   Data          13  rtl876x_lib_cfg_int.o(.constdata)
    .constdata                               0x0082ba50   Section       96  ecc.o(.constdata)
    curve_p                                  0x0082ba50   Data          32  ecc.o(.constdata)
    curve_a                                  0x0082ba70   Data          32  ecc.o(.constdata)
    curve_b                                  0x0082ba90   Data          32  ecc.o(.constdata)
    .constdata                               0x0082bab0   Section      180  provision_server.o(.constdata)
    .constdata                               0x0082bb64   Section      180  proxy_server.o(.constdata)
    .constdata                               0x0082bc18   Section       57  mesh_transport.o(.constdata)
    __func__                                 0x0082bc18   Data          21  mesh_transport.o(.constdata)
    __func__                                 0x0082bc2d   Data          11  mesh_transport.o(.constdata)
    __func__                                 0x0082bc38   Data          14  mesh_transport.o(.constdata)
    __func__                                 0x0082bc46   Data          11  mesh_transport.o(.constdata)
    .constdata                               0x0082bc51   Section        9  mesh_network.o(.constdata)
    __func__                                 0x0082bc51   Data           9  mesh_network.o(.constdata)
    .constdata                               0x0082bc5a   Section        9  mesh_rpl.o(.constdata)
    __func__                                 0x0082bc5a   Data           9  mesh_rpl.o(.constdata)
    .constdata                               0x0082bc63   Section       27  provision_adv.o(.constdata)
    __func__                                 0x0082bc63   Data          15  provision_adv.o(.constdata)
    __func__                                 0x0082bc72   Data          12  provision_adv.o(.constdata)
    .constdata                               0x0082bc7e   Section       93  proxy_protocol.o(.constdata)
    __func__                                 0x0082bc7e   Data          11  proxy_protocol.o(.constdata)
    __func__                                 0x0082bc89   Data          22  proxy_protocol.o(.constdata)
    __func__                                 0x0082bc9f   Data          26  proxy_protocol.o(.constdata)
    __func__                                 0x0082bcb9   Data          19  proxy_protocol.o(.constdata)
    __func__                                 0x0082bccc   Data          15  proxy_protocol.o(.constdata)
    .constdata                               0x0082bcdb   Section        9  friendship_lpn.o(.constdata)
    __func__                                 0x0082bcdb   Data           9  friendship_lpn.o(.constdata)
    .constdata                               0x0082bce4   Section        4  heartbeat.o(.constdata)
    .constdata                               0x0082bce8   Section      216  configuration_server.o(.constdata)
    __func__                                 0x0082bce8   Data          20  configuration_server.o(.constdata)
    __func__                                 0x0082bcfc   Data          19  configuration_server.o(.constdata)
    __func__                                 0x0082bd0f   Data          17  configuration_server.o(.constdata)
    __func__                                 0x0082bd20   Data          17  configuration_server.o(.constdata)
    __func__                                 0x0082bd31   Data          19  configuration_server.o(.constdata)
    __func__                                 0x0082bd44   Data          32  configuration_server.o(.constdata)
    __func__                                 0x0082bd64   Data          30  configuration_server.o(.constdata)
    __func__                                 0x0082bd82   Data          30  configuration_server.o(.constdata)
    __func__                                 0x0082bda0   Data          32  configuration_server.o(.constdata)
    .constdata                               0x0082bdc0   Section      256  crc8ets.o(.constdata)
    crc8EtsTable                             0x0082bdc0   Data         256  crc8ets.o(.constdata)
    .constdata                               0x0082bec0   Section       40  _printf_hex_int.o(.constdata)
    uc_hextab                                0x0082bec0   Data          20  _printf_hex_int.o(.constdata)
    lc_hextab                                0x0082bed4   Data          20  _printf_hex_int.o(.constdata)
    .constdata                               0x0082bee8   Section       17  __printf_flags_wp.o(.constdata)
    maptable                                 0x0082bee8   Data          17  __printf_flags_wp.o(.constdata)
    .conststring                             0x0082befc   Section      544  system_rtl8762c.o(.conststring)
    .conststring                             0x0082c11c   Section       25  overlay_mgr.o(.conststring)
    .conststring                             0x0082c138   Section      144  strip_app.o(.conststring)
    .conststring                             0x0082c1c8   Section      107  main_app.o(.conststring)
    .TRACE                                   0x08800000   Section      230  system_rtl8762c.o(.TRACE)
    __tagsym$$used                           0x08800000   Number         0  system_rtl8762c.o(.TRACE)
    format                                   0x08800000   Data          27  system_rtl8762c.o(.TRACE)
    __tagsym$$used                           0x0880001c   Number         0  system_rtl8762c.o(.TRACE)
    format                                   0x0880001c   Data          49  system_rtl8762c.o(.TRACE)
    __tagsym$$used                           0x08800050   Number         0  system_rtl8762c.o(.TRACE)
    format                                   0x08800050   Data          42  system_rtl8762c.o(.TRACE)
    __tagsym$$used                           0x0880007c   Number         0  system_rtl8762c.o(.TRACE)
    format                                   0x0880007c   Data          31  system_rtl8762c.o(.TRACE)
    __tagsym$$used                           0x0880009c   Number         0  system_rtl8762c.o(.TRACE)
    format                                   0x0880009c   Data          34  system_rtl8762c.o(.TRACE)
    __tagsym$$used                           0x088000c0   Number         0  system_rtl8762c.o(.TRACE)
    format                                   0x088000c0   Data          38  system_rtl8762c.o(.TRACE)
    .TRACE                                   0x088000e8   Section       42  rtl876x_io_dlps.o(.TRACE)
    __tagsym$$used                           0x088000e8   Number         0  rtl876x_io_dlps.o(.TRACE)
    format                                   0x088000e8   Data          42  rtl876x_io_dlps.o(.TRACE)
    .TRACE                                   0x08800114   Section     1595  dfu_server.o(.TRACE)
    __tagsym$$used                           0x08800114   Number         0  dfu_server.o(.TRACE)
    format                                   0x08800114   Data          86  dfu_server.o(.TRACE)
    __tagsym$$used                           0x0880016c   Number         0  dfu_server.o(.TRACE)
    format                                   0x0880016c   Data          64  dfu_server.o(.TRACE)
    __tagsym$$used                           0x088001ac   Number         0  dfu_server.o(.TRACE)
    format                                   0x088001ac   Data          23  dfu_server.o(.TRACE)
    __tagsym$$used                           0x088001c4   Number         0  dfu_server.o(.TRACE)
    format                                   0x088001c4   Data          45  dfu_server.o(.TRACE)
    __tagsym$$used                           0x088001f4   Number         0  dfu_server.o(.TRACE)
    format                                   0x088001f4   Data          61  dfu_server.o(.TRACE)
    __tagsym$$used                           0x08800234   Number         0  dfu_server.o(.TRACE)
    format                                   0x08800234   Data         124  dfu_server.o(.TRACE)
    __tagsym$$used                           0x088002b0   Number         0  dfu_server.o(.TRACE)
    format                                   0x088002b0   Data          68  dfu_server.o(.TRACE)
    __tagsym$$used                           0x088002f4   Number         0  dfu_server.o(.TRACE)
    format                                   0x088002f4   Data          49  dfu_server.o(.TRACE)
    __tagsym$$used                           0x08800328   Number         0  dfu_server.o(.TRACE)
    format                                   0x08800328   Data          38  dfu_server.o(.TRACE)
    __tagsym$$used                           0x08800350   Number         0  dfu_server.o(.TRACE)
    format                                   0x08800350   Data          63  dfu_server.o(.TRACE)
    __tagsym$$used                           0x08800390   Number         0  dfu_server.o(.TRACE)
    format                                   0x08800390   Data          36  dfu_server.o(.TRACE)
    __tagsym$$used                           0x088003b4   Number         0  dfu_server.o(.TRACE)
    format                                   0x088003b4   Data          31  dfu_server.o(.TRACE)
    __tagsym$$used                           0x088003d4   Number         0  dfu_server.o(.TRACE)
    format                                   0x088003d4   Data          27  dfu_server.o(.TRACE)
    __tagsym$$used                           0x088003f0   Number         0  dfu_server.o(.TRACE)
    format                                   0x088003f0   Data          31  dfu_server.o(.TRACE)
    __tagsym$$used                           0x08800410   Number         0  dfu_server.o(.TRACE)
    format                                   0x08800410   Data          46  dfu_server.o(.TRACE)
    __tagsym$$used                           0x08800440   Number         0  dfu_server.o(.TRACE)
    format                                   0x08800440   Data          67  dfu_server.o(.TRACE)
    __tagsym$$used                           0x08800484   Number         0  dfu_server.o(.TRACE)
    format                                   0x08800484   Data          86  dfu_server.o(.TRACE)
    __tagsym$$used                           0x088004dc   Number         0  dfu_server.o(.TRACE)
    format                                   0x088004dc   Data          57  dfu_server.o(.TRACE)
    __tagsym$$used                           0x08800518   Number         0  dfu_server.o(.TRACE)
    format                                   0x08800518   Data          41  dfu_server.o(.TRACE)
    __tagsym$$used                           0x08800544   Number         0  dfu_server.o(.TRACE)
    format                                   0x08800544   Data          62  dfu_server.o(.TRACE)
    __tagsym$$used                           0x08800584   Number         0  dfu_server.o(.TRACE)
    format                                   0x08800584   Data          58  dfu_server.o(.TRACE)
    __tagsym$$used                           0x088005c0   Number         0  dfu_server.o(.TRACE)
    format                                   0x088005c0   Data         109  dfu_server.o(.TRACE)
    __tagsym$$used                           0x08800630   Number         0  dfu_server.o(.TRACE)
    format                                   0x08800630   Data         118  dfu_server.o(.TRACE)
    __tagsym$$used                           0x088006a8   Number         0  dfu_server.o(.TRACE)
    format                                   0x088006a8   Data          30  dfu_server.o(.TRACE)
    __tagsym$$used                           0x088006c8   Number         0  dfu_server.o(.TRACE)
    format                                   0x088006c8   Data          49  dfu_server.o(.TRACE)
    __tagsym$$used                           0x088006fc   Number         0  dfu_server.o(.TRACE)
    format                                   0x088006fc   Data          44  dfu_server.o(.TRACE)
    __tagsym$$used                           0x08800728   Number         0  dfu_server.o(.TRACE)
    format                                   0x08800728   Data          39  dfu_server.o(.TRACE)
    .TRACE                                   0x08800750   Section     2004  dfu_client.o(.TRACE)
    __tagsym$$used                           0x08800750   Number         0  dfu_client.o(.TRACE)
    format                                   0x08800750   Data          40  dfu_client.o(.TRACE)
    __tagsym$$used                           0x08800778   Number         0  dfu_client.o(.TRACE)
    format                                   0x08800778   Data          45  dfu_client.o(.TRACE)
    __tagsym$$used                           0x088007a8   Number         0  dfu_client.o(.TRACE)
    format                                   0x088007a8   Data          56  dfu_client.o(.TRACE)
    __tagsym$$used                           0x088007e0   Number         0  dfu_client.o(.TRACE)
    format                                   0x088007e0   Data          68  dfu_client.o(.TRACE)
    __tagsym$$used                           0x08800824   Number         0  dfu_client.o(.TRACE)
    format                                   0x08800824   Data          66  dfu_client.o(.TRACE)
    __tagsym$$used                           0x08800868   Number         0  dfu_client.o(.TRACE)
    format                                   0x08800868   Data          65  dfu_client.o(.TRACE)
    __tagsym$$used                           0x088008ac   Number         0  dfu_client.o(.TRACE)
    format                                   0x088008ac   Data          58  dfu_client.o(.TRACE)
    __tagsym$$used                           0x088008e8   Number         0  dfu_client.o(.TRACE)
    format                                   0x088008e8   Data          16  dfu_client.o(.TRACE)
    __tagsym$$used                           0x088008f8   Number         0  dfu_client.o(.TRACE)
    format                                   0x088008f8   Data          62  dfu_client.o(.TRACE)
    __tagsym$$used                           0x08800938   Number         0  dfu_client.o(.TRACE)
    format                                   0x08800938   Data          64  dfu_client.o(.TRACE)
    __tagsym$$used                           0x08800978   Number         0  dfu_client.o(.TRACE)
    format                                   0x08800978   Data          55  dfu_client.o(.TRACE)
    __tagsym$$used                           0x088009b0   Number         0  dfu_client.o(.TRACE)
    format                                   0x088009b0   Data          64  dfu_client.o(.TRACE)
    __tagsym$$used                           0x088009f0   Number         0  dfu_client.o(.TRACE)
    format                                   0x088009f0   Data          57  dfu_client.o(.TRACE)
    __tagsym$$used                           0x08800a2c   Number         0  dfu_client.o(.TRACE)
    format                                   0x08800a2c   Data          71  dfu_client.o(.TRACE)
    __tagsym$$used                           0x08800a74   Number         0  dfu_client.o(.TRACE)
    format                                   0x08800a74   Data          80  dfu_client.o(.TRACE)
    __tagsym$$used                           0x08800ac4   Number         0  dfu_client.o(.TRACE)
    format                                   0x08800ac4   Data          64  dfu_client.o(.TRACE)
    __tagsym$$used                           0x08800b04   Number         0  dfu_client.o(.TRACE)
    format                                   0x08800b04   Data          85  dfu_client.o(.TRACE)
    __tagsym$$used                           0x08800b5c   Number         0  dfu_client.o(.TRACE)
    format                                   0x08800b5c   Data          84  dfu_client.o(.TRACE)
    __tagsym$$used                           0x08800bb0   Number         0  dfu_client.o(.TRACE)
    format                                   0x08800bb0   Data         105  dfu_client.o(.TRACE)
    __tagsym$$used                           0x08800c1c   Number         0  dfu_client.o(.TRACE)
    format                                   0x08800c1c   Data          59  dfu_client.o(.TRACE)
    __tagsym$$used                           0x08800c58   Number         0  dfu_client.o(.TRACE)
    format                                   0x08800c58   Data          73  dfu_client.o(.TRACE)
    __tagsym$$used                           0x08800ca4   Number         0  dfu_client.o(.TRACE)
    format                                   0x08800ca4   Data          77  dfu_client.o(.TRACE)
    __tagsym$$used                           0x08800cf4   Number         0  dfu_client.o(.TRACE)
    format                                   0x08800cf4   Data          67  dfu_client.o(.TRACE)
    __tagsym$$used                           0x08800d38   Number         0  dfu_client.o(.TRACE)
    format                                   0x08800d38   Data          61  dfu_client.o(.TRACE)
    __tagsym$$used                           0x08800d78   Number         0  dfu_client.o(.TRACE)
    format                                   0x08800d78   Data          61  dfu_client.o(.TRACE)
    __tagsym$$used                           0x08800db8   Number         0  dfu_client.o(.TRACE)
    format                                   0x08800db8   Data          54  dfu_client.o(.TRACE)
    __tagsym$$used                           0x08800df0   Number         0  dfu_client.o(.TRACE)
    format                                   0x08800df0   Data          83  dfu_client.o(.TRACE)
    __tagsym$$used                           0x08800e44   Number         0  dfu_client.o(.TRACE)
    format                                   0x08800e44   Data          82  dfu_client.o(.TRACE)
    __tagsym$$used                           0x08800e98   Number         0  dfu_client.o(.TRACE)
    format                                   0x08800e98   Data          58  dfu_client.o(.TRACE)
    __tagsym$$used                           0x08800ed4   Number         0  dfu_client.o(.TRACE)
    format                                   0x08800ed4   Data          36  dfu_client.o(.TRACE)
    __tagsym$$used                           0x08800ef8   Number         0  dfu_client.o(.TRACE)
    format                                   0x08800ef8   Data          44  dfu_client.o(.TRACE)
    .TRACE                                   0x08800f24   Section      339  ota_server.o(.TRACE)
    __tagsym$$used                           0x08800f24   Number         0  ota_server.o(.TRACE)
    format                                   0x08800f24   Data          59  ota_server.o(.TRACE)
    __tagsym$$used                           0x08800f60   Number         0  ota_server.o(.TRACE)
    format                                   0x08800f60   Data          46  ota_server.o(.TRACE)
    __tagsym$$used                           0x08800f90   Number         0  ota_server.o(.TRACE)
    format                                   0x08800f90   Data          19  ota_server.o(.TRACE)
    __tagsym$$used                           0x08800fa4   Number         0  ota_server.o(.TRACE)
    format                                   0x08800fa4   Data          22  ota_server.o(.TRACE)
    __tagsym$$used                           0x08800fbc   Number         0  ota_server.o(.TRACE)
    format                                   0x08800fbc   Data          17  ota_server.o(.TRACE)
    __tagsym$$used                           0x08800fd0   Number         0  ota_server.o(.TRACE)
    format                                   0x08800fd0   Data          20  ota_server.o(.TRACE)
    __tagsym$$used                           0x08800fe4   Number         0  ota_server.o(.TRACE)
    format                                   0x08800fe4   Data          23  ota_server.o(.TRACE)
    __tagsym$$used                           0x08800ffc   Number         0  ota_server.o(.TRACE)
    format                                   0x08800ffc   Data          19  ota_server.o(.TRACE)
    __tagsym$$used                           0x08801010   Number         0  ota_server.o(.TRACE)
    format                                   0x08801010   Data          22  ota_server.o(.TRACE)
    __tagsym$$used                           0x08801028   Number         0  ota_server.o(.TRACE)
    format                                   0x08801028   Data          17  ota_server.o(.TRACE)
    __tagsym$$used                           0x0880103c   Number         0  ota_server.o(.TRACE)
    format                                   0x0880103c   Data          20  ota_server.o(.TRACE)
    __tagsym$$used                           0x08801050   Number         0  ota_server.o(.TRACE)
    format                                   0x08801050   Data          39  ota_server.o(.TRACE)
    .TRACE                                   0x08801078   Section     1105  ais_server.o(.TRACE)
    __tagsym$$used                           0x08801078   Number         0  ais_server.o(.TRACE)
    format                                   0x08801078   Data          65  ais_server.o(.TRACE)
    __tagsym$$used                           0x088010bc   Number         0  ais_server.o(.TRACE)
    format                                   0x088010bc   Data          35  ais_server.o(.TRACE)
    __tagsym$$used                           0x088010e0   Number         0  ais_server.o(.TRACE)
    format                                   0x088010e0   Data         137  ais_server.o(.TRACE)
    __tagsym$$used                           0x0880116c   Number         0  ais_server.o(.TRACE)
    format                                   0x0880116c   Data          17  ais_server.o(.TRACE)
    __tagsym$$used                           0x08801180   Number         0  ais_server.o(.TRACE)
    format                                   0x08801180   Data          87  ais_server.o(.TRACE)
    __tagsym$$used                           0x088011d8   Number         0  ais_server.o(.TRACE)
    format                                   0x088011d8   Data          54  ais_server.o(.TRACE)
    __tagsym$$used                           0x08801210   Number         0  ais_server.o(.TRACE)
    format                                   0x08801210   Data          17  ais_server.o(.TRACE)
    __tagsym$$used                           0x08801224   Number         0  ais_server.o(.TRACE)
    format                                   0x08801224   Data          75  ais_server.o(.TRACE)
    __tagsym$$used                           0x08801270   Number         0  ais_server.o(.TRACE)
    format                                   0x08801270   Data          72  ais_server.o(.TRACE)
    __tagsym$$used                           0x088012b8   Number         0  ais_server.o(.TRACE)
    format                                   0x088012b8   Data          72  ais_server.o(.TRACE)
    __tagsym$$used                           0x08801300   Number         0  ais_server.o(.TRACE)
    format                                   0x08801300   Data          56  ais_server.o(.TRACE)
    __tagsym$$used                           0x08801338   Number         0  ais_server.o(.TRACE)
    format                                   0x08801338   Data          55  ais_server.o(.TRACE)
    __tagsym$$used                           0x08801370   Number         0  ais_server.o(.TRACE)
    format                                   0x08801370   Data          61  ais_server.o(.TRACE)
    __tagsym$$used                           0x088013b0   Number         0  ais_server.o(.TRACE)
    format                                   0x088013b0   Data          17  ais_server.o(.TRACE)
    __tagsym$$used                           0x088013c4   Number         0  ais_server.o(.TRACE)
    format                                   0x088013c4   Data          50  ais_server.o(.TRACE)
    __tagsym$$used                           0x088013f8   Number         0  ais_server.o(.TRACE)
    format                                   0x088013f8   Data          17  ais_server.o(.TRACE)
    __tagsym$$used                           0x0880140c   Number         0  ais_server.o(.TRACE)
    format                                   0x0880140c   Data          52  ais_server.o(.TRACE)
    __tagsym$$used                           0x08801440   Number         0  ais_server.o(.TRACE)
    format                                   0x08801440   Data          17  ais_server.o(.TRACE)
    __tagsym$$used                           0x08801454   Number         0  ais_server.o(.TRACE)
    format                                   0x08801454   Data          70  ais_server.o(.TRACE)
    __tagsym$$used                           0x0880149c   Number         0  ais_server.o(.TRACE)
    format                                   0x0880149c   Data          45  ais_server.o(.TRACE)
    .TRACE                                   0x088014cc   Section      158  dis.o(.TRACE)
    __tagsym$$used                           0x088014cc   Number         0  dis.o(.TRACE)
    format                                   0x088014cc   Data          28  dis.o(.TRACE)
    __tagsym$$used                           0x088014e8   Number         0  dis.o(.TRACE)
    format                                   0x088014e8   Data          37  dis.o(.TRACE)
    __tagsym$$used                           0x08801510   Number         0  dis.o(.TRACE)
    format                                   0x08801510   Data          53  dis.o(.TRACE)
    __tagsym$$used                           0x08801548   Number         0  dis.o(.TRACE)
    format                                   0x08801548   Data          34  dis.o(.TRACE)
    .TRACE                                   0x0880156c   Section       90  health_server.o(.TRACE)
    __tagsym$$used                           0x0880156c   Number         0  health_server.o(.TRACE)
    format                                   0x0880156c   Data          90  health_server.o(.TRACE)
    .TRACE                                   0x088015c8   Section      144  firmware_update_server.o(.TRACE)
    __tagsym$$used                           0x088015c8   Number         0  firmware_update_server.o(.TRACE)
    format                                   0x088015c8   Data          77  firmware_update_server.o(.TRACE)
    __tagsym$$used                           0x08801618   Number         0  firmware_update_server.o(.TRACE)
    format                                   0x08801618   Data          64  firmware_update_server.o(.TRACE)
    .TRACE                                   0x08801658   Section      779  object_transfer_server.o(.TRACE)
    __tagsym$$used                           0x08801658   Number         0  object_transfer_server.o(.TRACE)
    format                                   0x08801658   Data         123  object_transfer_server.o(.TRACE)
    __tagsym$$used                           0x088016d4   Number         0  object_transfer_server.o(.TRACE)
    format                                   0x088016d4   Data          15  object_transfer_server.o(.TRACE)
    __tagsym$$used                           0x088016e4   Number         0  object_transfer_server.o(.TRACE)
    format                                   0x088016e4   Data          75  object_transfer_server.o(.TRACE)
    __tagsym$$used                           0x08801730   Number         0  object_transfer_server.o(.TRACE)
    format                                   0x08801730   Data         108  object_transfer_server.o(.TRACE)
    __tagsym$$used                           0x0880179c   Number         0  object_transfer_server.o(.TRACE)
    format                                   0x0880179c   Data          65  object_transfer_server.o(.TRACE)
    __tagsym$$used                           0x088017e0   Number         0  object_transfer_server.o(.TRACE)
    format                                   0x088017e0   Data          68  object_transfer_server.o(.TRACE)
    __tagsym$$used                           0x08801824   Number         0  object_transfer_server.o(.TRACE)
    format                                   0x08801824   Data          79  object_transfer_server.o(.TRACE)
    __tagsym$$used                           0x08801874   Number         0  object_transfer_server.o(.TRACE)
    format                                   0x08801874   Data          90  object_transfer_server.o(.TRACE)
    __tagsym$$used                           0x088018d0   Number         0  object_transfer_server.o(.TRACE)
    format                                   0x088018d0   Data          15  object_transfer_server.o(.TRACE)
    __tagsym$$used                           0x088018e0   Number         0  object_transfer_server.o(.TRACE)
    format                                   0x088018e0   Data          67  object_transfer_server.o(.TRACE)
    __tagsym$$used                           0x08801924   Number         0  object_transfer_server.o(.TRACE)
    format                                   0x08801924   Data          63  object_transfer_server.o(.TRACE)
    .TRACE                                   0x08801964   Section      177  generic_on_off_server.o(.TRACE)
    __tagsym$$used                           0x08801964   Number         0  generic_on_off_server.o(.TRACE)
    format                                   0x08801964   Data          98  generic_on_off_server.o(.TRACE)
    __tagsym$$used                           0x088019c8   Number         0  generic_on_off_server.o(.TRACE)
    format                                   0x088019c8   Data          77  generic_on_off_server.o(.TRACE)
    .TRACE                                   0x08801a18   Section       83  generic_power_on_off_server.o(.TRACE)
    __tagsym$$used                           0x08801a18   Number         0  generic_power_on_off_server.o(.TRACE)
    format                                   0x08801a18   Data          83  generic_power_on_off_server.o(.TRACE)
    .TRACE                                   0x08801a6c   Section       89  generic_power_on_off_setup_server.o(.TRACE)
    __tagsym$$used                           0x08801a6c   Number         0  generic_power_on_off_setup_server.o(.TRACE)
    format                                   0x08801a6c   Data          89  generic_power_on_off_setup_server.o(.TRACE)
    .TRACE                                   0x08801ac8   Section      176  generic_level_server.o(.TRACE)
    __tagsym$$used                           0x08801ac8   Number         0  generic_level_server.o(.TRACE)
    format                                   0x08801ac8   Data          97  generic_level_server.o(.TRACE)
    __tagsym$$used                           0x08801b2c   Number         0  generic_level_server.o(.TRACE)
    format                                   0x08801b2c   Data          76  generic_level_server.o(.TRACE)
    .TRACE                                   0x08801b78   Section      107  generic_transition_time.o(.TRACE)
    __tagsym$$used                           0x08801b78   Number         0  generic_transition_time.o(.TRACE)
    format                                   0x08801b78   Data          71  generic_transition_time.o(.TRACE)
    __tagsym$$used                           0x08801bc0   Number         0  generic_transition_time.o(.TRACE)
    format                                   0x08801bc0   Data          35  generic_transition_time.o(.TRACE)
    .TRACE                                   0x08801be4   Section      178  light_lightness_server.o(.TRACE)
    __tagsym$$used                           0x08801be4   Number         0  light_lightness_server.o(.TRACE)
    format                                   0x08801be4   Data          99  light_lightness_server.o(.TRACE)
    __tagsym$$used                           0x08801c48   Number         0  light_lightness_server.o(.TRACE)
    format                                   0x08801c48   Data          78  light_lightness_server.o(.TRACE)
    .TRACE                                   0x08801c98   Section       84  light_lightness_setup_server.o(.TRACE)
    __tagsym$$used                           0x08801c98   Number         0  light_lightness_setup_server.o(.TRACE)
    format                                   0x08801c98   Data          84  light_lightness_setup_server.o(.TRACE)
    .TRACE                                   0x08801cec   Section      168  light_ctl_server.o(.TRACE)
    __tagsym$$used                           0x08801cec   Number         0  light_ctl_server.o(.TRACE)
    format                                   0x08801cec   Data          93  light_ctl_server.o(.TRACE)
    __tagsym$$used                           0x08801d4c   Number         0  light_ctl_server.o(.TRACE)
    format                                   0x08801d4c   Data          72  light_ctl_server.o(.TRACE)
    .TRACE                                   0x08801d94   Section      192  light_ctl_temperature_server.o(.TRACE)
    __tagsym$$used                           0x08801d94   Number         0  light_ctl_temperature_server.o(.TRACE)
    format                                   0x08801d94   Data         105  light_ctl_temperature_server.o(.TRACE)
    __tagsym$$used                           0x08801e00   Number         0  light_ctl_temperature_server.o(.TRACE)
    format                                   0x08801e00   Data          84  light_ctl_temperature_server.o(.TRACE)
    .TRACE                                   0x08801e54   Section      168  light_hsl_server.o(.TRACE)
    __tagsym$$used                           0x08801e54   Number         0  light_hsl_server.o(.TRACE)
    format                                   0x08801e54   Data          93  light_hsl_server.o(.TRACE)
    __tagsym$$used                           0x08801eb4   Number         0  light_hsl_server.o(.TRACE)
    format                                   0x08801eb4   Data          72  light_hsl_server.o(.TRACE)
    .TRACE                                   0x08801efc   Section      176  light_hsl_hue_server.o(.TRACE)
    __tagsym$$used                           0x08801efc   Number         0  light_hsl_hue_server.o(.TRACE)
    format                                   0x08801efc   Data          97  light_hsl_hue_server.o(.TRACE)
    __tagsym$$used                           0x08801f60   Number         0  light_hsl_hue_server.o(.TRACE)
    format                                   0x08801f60   Data          76  light_hsl_hue_server.o(.TRACE)
    .TRACE                                   0x08801fac   Section      187  light_hsl_saturation_server.o(.TRACE)
    __tagsym$$used                           0x08801fac   Number         0  light_hsl_saturation_server.o(.TRACE)
    format                                   0x08801fac   Data         104  light_hsl_saturation_server.o(.TRACE)
    __tagsym$$used                           0x08802014   Number         0  light_hsl_saturation_server.o(.TRACE)
    format                                   0x08802014   Data          83  light_hsl_saturation_server.o(.TRACE)
    .TRACE                                   0x08802068   Section       78  light_hsl_setup_server.o(.TRACE)
    __tagsym$$used                           0x08802068   Number         0  light_hsl_setup_server.o(.TRACE)
    format                                   0x08802068   Data          78  light_hsl_setup_server.o(.TRACE)
    .TRACE                                   0x088020b8   Section       88  generic_default_transition_time_server.o(.TRACE)
    __tagsym$$used                           0x088020b8   Number         0  generic_default_transition_time_server.o(.TRACE)
    format                                   0x088020b8   Data          88  generic_default_transition_time_server.o(.TRACE)
    .TRACE                                   0x08802110   Section      160  scene_server.o(.TRACE)
    __tagsym$$used                           0x08802110   Number         0  scene_server.o(.TRACE)
    format                                   0x08802110   Data          89  scene_server.o(.TRACE)
    __tagsym$$used                           0x0880216c   Number         0  scene_server.o(.TRACE)
    format                                   0x0880216c   Data          68  scene_server.o(.TRACE)
    .TRACE                                   0x088021b0   Section       78  light_ctl_setup_server.o(.TRACE)
    __tagsym$$used                           0x088021b0   Number         0  light_ctl_setup_server.o(.TRACE)
    format                                   0x088021b0   Data          78  light_ctl_setup_server.o(.TRACE)
    .TRACE                                   0x08802200   Section      164  scene_setup_server.o(.TRACE)
    __tagsym$$used                           0x08802200   Number         0  scene_setup_server.o(.TRACE)
    format                                   0x08802200   Data          95  scene_setup_server.o(.TRACE)
    __tagsym$$used                           0x08802260   Number         0  scene_setup_server.o(.TRACE)
    format                                   0x08802260   Data          68  scene_setup_server.o(.TRACE)
    .TRACE                                   0x088022a4   Section      293  delay_execution.o(.TRACE)
    __tagsym$$used                           0x088022a4   Number         0  delay_execution.o(.TRACE)
    format                                   0x088022a4   Data          66  delay_execution.o(.TRACE)
    __tagsym$$used                           0x088022e8   Number         0  delay_execution.o(.TRACE)
    format                                   0x088022e8   Data          55  delay_execution.o(.TRACE)
    __tagsym$$used                           0x08802320   Number         0  delay_execution.o(.TRACE)
    format                                   0x08802320   Data          85  delay_execution.o(.TRACE)
    __tagsym$$used                           0x08802378   Number         0  delay_execution.o(.TRACE)
    format                                   0x08802378   Data          81  delay_execution.o(.TRACE)
    .TRACE                                   0x088023cc   Section      307  dfu_updater_app.o(.TRACE)
    __tagsym$$used                           0x088023cc   Number         0  dfu_updater_app.o(.TRACE)
    format                                   0x088023cc   Data          42  dfu_updater_app.o(.TRACE)
    __tagsym$$used                           0x088023f8   Number         0  dfu_updater_app.o(.TRACE)
    format                                   0x088023f8   Data          52  dfu_updater_app.o(.TRACE)
    __tagsym$$used                           0x0880242c   Number         0  dfu_updater_app.o(.TRACE)
    format                                   0x0880242c   Data          35  dfu_updater_app.o(.TRACE)
    __tagsym$$used                           0x08802450   Number         0  dfu_updater_app.o(.TRACE)
    format                                   0x08802450   Data          16  dfu_updater_app.o(.TRACE)
    __tagsym$$used                           0x08802460   Number         0  dfu_updater_app.o(.TRACE)
    format                                   0x08802460   Data          16  dfu_updater_app.o(.TRACE)
    __tagsym$$used                           0x08802470   Number         0  dfu_updater_app.o(.TRACE)
    format                                   0x08802470   Data          39  dfu_updater_app.o(.TRACE)
    __tagsym$$used                           0x08802498   Number         0  dfu_updater_app.o(.TRACE)
    format                                   0x08802498   Data          69  dfu_updater_app.o(.TRACE)
    __tagsym$$used                           0x088024e0   Number         0  dfu_updater_app.o(.TRACE)
    format                                   0x088024e0   Data          31  dfu_updater_app.o(.TRACE)
    .TRACE                                   0x08802500   Section      126  dimmable_light.o(.TRACE)
    __tagsym$$used                           0x08802500   Number         0  dimmable_light.o(.TRACE)
    format                                   0x08802500   Data          62  dimmable_light.o(.TRACE)
    __tagsym$$used                           0x08802540   Number         0  dimmable_light.o(.TRACE)
    format                                   0x08802540   Data          62  dimmable_light.o(.TRACE)
    .TRACE                                   0x08802580   Section      230  mp_cmd_parse.o(.TRACE)
    __tagsym$$used                           0x08802580   Number         0  mp_cmd_parse.o(.TRACE)
    format                                   0x08802580   Data          57  mp_cmd_parse.o(.TRACE)
    __tagsym$$used                           0x088025bc   Number         0  mp_cmd_parse.o(.TRACE)
    format                                   0x088025bc   Data          71  mp_cmd_parse.o(.TRACE)
    __tagsym$$used                           0x08802604   Number         0  mp_cmd_parse.o(.TRACE)
    format                                   0x08802604   Data          55  mp_cmd_parse.o(.TRACE)
    __tagsym$$used                           0x0880263c   Number         0  mp_cmd_parse.o(.TRACE)
    format                                   0x0880263c   Data          42  mp_cmd_parse.o(.TRACE)
    .TRACE                                   0x08802668   Section       56  app_task.o(.TRACE)
    __tagsym$$used                           0x08802668   Number         0  app_task.o(.TRACE)
    format                                   0x08802668   Data          27  app_task.o(.TRACE)
    __tagsym$$used                           0x08802684   Number         0  app_task.o(.TRACE)
    format                                   0x08802684   Data          28  app_task.o(.TRACE)
    .TRACE                                   0x088026a0   Section       55  main.o(.TRACE)
    __tagsym$$used                           0x088026a0   Number         0  main.o(.TRACE)
    format                                   0x088026a0   Data          55  main.o(.TRACE)
    .TRACE                                   0x088026d8   Section      125  mp_cmd.o(.TRACE)
    __tagsym$$used                           0x088026d8   Number         0  mp_cmd.o(.TRACE)
    format                                   0x088026d8   Data          60  mp_cmd.o(.TRACE)
    __tagsym$$used                           0x08802714   Number         0  mp_cmd.o(.TRACE)
    format                                   0x08802714   Data          65  mp_cmd.o(.TRACE)
    .TRACE                                   0x08802758   Section       61  strip_timer.o(.TRACE)
    __tagsym$$used                           0x08802758   Number         0  strip_timer.o(.TRACE)
    format                                   0x08802758   Data          29  strip_timer.o(.TRACE)
    __tagsym$$used                           0x08802778   Number         0  strip_timer.o(.TRACE)
    format                                   0x08802778   Data          29  strip_timer.o(.TRACE)
    .TRACE                                   0x08802798   Section     3100  main_app.o(.TRACE)
    __tagsym$$used                           0x08802798   Number         0  main_app.o(.TRACE)
    format                                   0x08802798   Data          85  main_app.o(.TRACE)
    __tagsym$$used                           0x088027f0   Number         0  main_app.o(.TRACE)
    format                                   0x088027f0   Data          19  main_app.o(.TRACE)
    __tagsym$$used                           0x08802804   Number         0  main_app.o(.TRACE)
    format                                   0x08802804   Data          31  main_app.o(.TRACE)
    __tagsym$$used                           0x08802824   Number         0  main_app.o(.TRACE)
    format                                   0x08802824   Data          80  main_app.o(.TRACE)
    __tagsym$$used                           0x08802874   Number         0  main_app.o(.TRACE)
    format                                   0x08802874   Data          70  main_app.o(.TRACE)
    __tagsym$$used                           0x088028bc   Number         0  main_app.o(.TRACE)
    format                                   0x088028bc   Data         132  main_app.o(.TRACE)
    __tagsym$$used                           0x08802940   Number         0  main_app.o(.TRACE)
    format                                   0x08802940   Data          54  main_app.o(.TRACE)
    __tagsym$$used                           0x08802978   Number         0  main_app.o(.TRACE)
    format                                   0x08802978   Data          57  main_app.o(.TRACE)
    __tagsym$$used                           0x088029b4   Number         0  main_app.o(.TRACE)
    format                                   0x088029b4   Data          71  main_app.o(.TRACE)
    __tagsym$$used                           0x088029fc   Number         0  main_app.o(.TRACE)
    format                                   0x088029fc   Data          70  main_app.o(.TRACE)
    __tagsym$$used                           0x08802a44   Number         0  main_app.o(.TRACE)
    format                                   0x08802a44   Data          52  main_app.o(.TRACE)
    __tagsym$$used                           0x08802a78   Number         0  main_app.o(.TRACE)
    format                                   0x08802a78   Data          57  main_app.o(.TRACE)
    __tagsym$$used                           0x08802ab4   Number         0  main_app.o(.TRACE)
    format                                   0x08802ab4   Data         138  main_app.o(.TRACE)
    __tagsym$$used                           0x08802b40   Number         0  main_app.o(.TRACE)
    format                                   0x08802b40   Data          74  main_app.o(.TRACE)
    __tagsym$$used                           0x08802b8c   Number         0  main_app.o(.TRACE)
    format                                   0x08802b8c   Data          63  main_app.o(.TRACE)
    __tagsym$$used                           0x08802bcc   Number         0  main_app.o(.TRACE)
    format                                   0x08802bcc   Data          32  main_app.o(.TRACE)
    __tagsym$$used                           0x08802bec   Number         0  main_app.o(.TRACE)
    format                                   0x08802bec   Data          29  main_app.o(.TRACE)
    __tagsym$$used                           0x08802c0c   Number         0  main_app.o(.TRACE)
    format                                   0x08802c0c   Data          59  main_app.o(.TRACE)
    __tagsym$$used                           0x08802c48   Number         0  main_app.o(.TRACE)
    format                                   0x08802c48   Data          61  main_app.o(.TRACE)
    __tagsym$$used                           0x08802c88   Number         0  main_app.o(.TRACE)
    format                                   0x08802c88   Data          59  main_app.o(.TRACE)
    __tagsym$$used                           0x08802cc4   Number         0  main_app.o(.TRACE)
    format                                   0x08802cc4   Data          41  main_app.o(.TRACE)
    __tagsym$$used                           0x08802cf0   Number         0  main_app.o(.TRACE)
    format                                   0x08802cf0   Data          43  main_app.o(.TRACE)
    __tagsym$$used                           0x08802d1c   Number         0  main_app.o(.TRACE)
    format                                   0x08802d1c   Data          56  main_app.o(.TRACE)
    __tagsym$$used                           0x08802d54   Number         0  main_app.o(.TRACE)
    format                                   0x08802d54   Data          81  main_app.o(.TRACE)
    __tagsym$$used                           0x08802da8   Number         0  main_app.o(.TRACE)
    format                                   0x08802da8   Data          42  main_app.o(.TRACE)
    __tagsym$$used                           0x08802dd4   Number         0  main_app.o(.TRACE)
    format                                   0x08802dd4   Data          58  main_app.o(.TRACE)
    __tagsym$$used                           0x08802e10   Number         0  main_app.o(.TRACE)
    format                                   0x08802e10   Data          93  main_app.o(.TRACE)
    __tagsym$$used                           0x08802e70   Number         0  main_app.o(.TRACE)
    format                                   0x08802e70   Data         134  main_app.o(.TRACE)
    __tagsym$$used                           0x08802ef8   Number         0  main_app.o(.TRACE)
    format                                   0x08802ef8   Data          49  main_app.o(.TRACE)
    __tagsym$$used                           0x08802f2c   Number         0  main_app.o(.TRACE)
    format                                   0x08802f2c   Data          43  main_app.o(.TRACE)
    __tagsym$$used                           0x08802f58   Number         0  main_app.o(.TRACE)
    format                                   0x08802f58   Data          46  main_app.o(.TRACE)
    __tagsym$$used                           0x08802f88   Number         0  main_app.o(.TRACE)
    format                                   0x08802f88   Data          48  main_app.o(.TRACE)
    __tagsym$$used                           0x08802fb8   Number         0  main_app.o(.TRACE)
    format                                   0x08802fb8   Data          49  main_app.o(.TRACE)
    __tagsym$$used                           0x08802fec   Number         0  main_app.o(.TRACE)
    format                                   0x08802fec   Data          44  main_app.o(.TRACE)
    __tagsym$$used                           0x08803018   Number         0  main_app.o(.TRACE)
    format                                   0x08803018   Data          49  main_app.o(.TRACE)
    __tagsym$$used                           0x0880304c   Number         0  main_app.o(.TRACE)
    format                                   0x0880304c   Data          41  main_app.o(.TRACE)
    __tagsym$$used                           0x08803078   Number         0  main_app.o(.TRACE)
    format                                   0x08803078   Data          49  main_app.o(.TRACE)
    __tagsym$$used                           0x088030ac   Number         0  main_app.o(.TRACE)
    format                                   0x088030ac   Data          83  main_app.o(.TRACE)
    __tagsym$$used                           0x08803100   Number         0  main_app.o(.TRACE)
    format                                   0x08803100   Data          50  main_app.o(.TRACE)
    __tagsym$$used                           0x08803134   Number         0  main_app.o(.TRACE)
    format                                   0x08803134   Data          43  main_app.o(.TRACE)
    __tagsym$$used                           0x08803160   Number         0  main_app.o(.TRACE)
    format                                   0x08803160   Data         102  main_app.o(.TRACE)
    __tagsym$$used                           0x088031c8   Number         0  main_app.o(.TRACE)
    format                                   0x088031c8   Data          42  main_app.o(.TRACE)
    __tagsym$$used                           0x088031f4   Number         0  main_app.o(.TRACE)
    format                                   0x088031f4   Data          41  main_app.o(.TRACE)
    __tagsym$$used                           0x08803220   Number         0  main_app.o(.TRACE)
    format                                   0x08803220   Data          22  main_app.o(.TRACE)
    __tagsym$$used                           0x08803238   Number         0  main_app.o(.TRACE)
    format                                   0x08803238   Data          58  main_app.o(.TRACE)
    __tagsym$$used                           0x08803274   Number         0  main_app.o(.TRACE)
    format                                   0x08803274   Data          30  main_app.o(.TRACE)
    __tagsym$$used                           0x08803294   Number         0  main_app.o(.TRACE)
    format                                   0x08803294   Data          31  main_app.o(.TRACE)
    __tagsym$$used                           0x088032b4   Number         0  main_app.o(.TRACE)
    format                                   0x088032b4   Data          66  main_app.o(.TRACE)
    __tagsym$$used                           0x088032f8   Number         0  main_app.o(.TRACE)
    format                                   0x088032f8   Data          89  main_app.o(.TRACE)
    __tagsym$$used                           0x08803354   Number         0  main_app.o(.TRACE)
    format                                   0x08803354   Data          96  main_app.o(.TRACE)
    .TRACE                                   0x088033b4   Section      651  silent_dfu_flash.o(.TRACE)
    __tagsym$$used                           0x088033b4   Number         0  silent_dfu_flash.o(.TRACE)
    format                                   0x088033b4   Data          47  silent_dfu_flash.o(.TRACE)
    __tagsym$$used                           0x088033e4   Number         0  silent_dfu_flash.o(.TRACE)
    format                                   0x088033e4   Data          61  silent_dfu_flash.o(.TRACE)
    __tagsym$$used                           0x08803424   Number         0  silent_dfu_flash.o(.TRACE)
    format                                   0x08803424   Data          33  silent_dfu_flash.o(.TRACE)
    __tagsym$$used                           0x08803448   Number         0  silent_dfu_flash.o(.TRACE)
    format                                   0x08803448   Data          39  silent_dfu_flash.o(.TRACE)
    __tagsym$$used                           0x08803470   Number         0  silent_dfu_flash.o(.TRACE)
    format                                   0x08803470   Data          63  silent_dfu_flash.o(.TRACE)
    __tagsym$$used                           0x088034b0   Number         0  silent_dfu_flash.o(.TRACE)
    format                                   0x088034b0   Data          84  silent_dfu_flash.o(.TRACE)
    __tagsym$$used                           0x08803504   Number         0  silent_dfu_flash.o(.TRACE)
    format                                   0x08803504   Data          39  silent_dfu_flash.o(.TRACE)
    __tagsym$$used                           0x0880352c   Number         0  silent_dfu_flash.o(.TRACE)
    format                                   0x0880352c   Data          75  silent_dfu_flash.o(.TRACE)
    __tagsym$$used                           0x08803578   Number         0  silent_dfu_flash.o(.TRACE)
    format                                   0x08803578   Data          39  silent_dfu_flash.o(.TRACE)
    __tagsym$$used                           0x088035a0   Number         0  silent_dfu_flash.o(.TRACE)
    format                                   0x088035a0   Data          30  silent_dfu_flash.o(.TRACE)
    __tagsym$$used                           0x088035c0   Number         0  silent_dfu_flash.o(.TRACE)
    format                                   0x088035c0   Data          66  silent_dfu_flash.o(.TRACE)
    __tagsym$$used                           0x08803604   Number         0  silent_dfu_flash.o(.TRACE)
    format                                   0x08803604   Data          59  silent_dfu_flash.o(.TRACE)
    .TRACE                                   0x08803640   Section       94  light_controller_app.o(.TRACE)
    __tagsym$$used                           0x08803640   Number         0  light_controller_app.o(.TRACE)
    format                                   0x08803640   Data          94  light_controller_app.o(.TRACE)
    .TRACE                                   0x088036a0   Section      154  light_swtimer.o(.TRACE)
    __tagsym$$used                           0x088036a0   Number         0  light_swtimer.o(.TRACE)
    format                                   0x088036a0   Data          47  light_swtimer.o(.TRACE)
    __tagsym$$used                           0x088036d0   Number         0  light_swtimer.o(.TRACE)
    format                                   0x088036d0   Data          46  light_swtimer.o(.TRACE)
    __tagsym$$used                           0x08803700   Number         0  light_swtimer.o(.TRACE)
    format                                   0x08803700   Data          58  light_swtimer.o(.TRACE)
    .TRACE                                   0x0880373c   Section      356  rtl876x_lib_platform.o(.TRACE)
    __tagsym$$used                           0x0880373c   Number         0  rtl876x_lib_platform.o(.TRACE)
    format                                   0x0880373c   Data          28  rtl876x_lib_platform.o(.TRACE)
    __tagsym$$used                           0x08803758   Number         0  rtl876x_lib_platform.o(.TRACE)
    format                                   0x08803758   Data          27  rtl876x_lib_platform.o(.TRACE)
    __tagsym$$used                           0x08803774   Number         0  rtl876x_lib_platform.o(.TRACE)
    format                                   0x08803774   Data          42  rtl876x_lib_platform.o(.TRACE)
    __tagsym$$used                           0x088037a0   Number         0  rtl876x_lib_platform.o(.TRACE)
    format                                   0x088037a0   Data          32  rtl876x_lib_platform.o(.TRACE)
    __tagsym$$used                           0x088037c0   Number         0  rtl876x_lib_platform.o(.TRACE)
    format                                   0x088037c0   Data          22  rtl876x_lib_platform.o(.TRACE)
    __tagsym$$used                           0x088037d8   Number         0  rtl876x_lib_platform.o(.TRACE)
    format                                   0x088037d8   Data          19  rtl876x_lib_platform.o(.TRACE)
    __tagsym$$used                           0x088037ec   Number         0  rtl876x_lib_platform.o(.TRACE)
    format                                   0x088037ec   Data          28  rtl876x_lib_platform.o(.TRACE)
    __tagsym$$used                           0x08803808   Number         0  rtl876x_lib_platform.o(.TRACE)
    format                                   0x08803808   Data          27  rtl876x_lib_platform.o(.TRACE)
    __tagsym$$used                           0x08803824   Number         0  rtl876x_lib_platform.o(.TRACE)
    format                                   0x08803824   Data          43  rtl876x_lib_platform.o(.TRACE)
    __tagsym$$used                           0x08803850   Number         0  rtl876x_lib_platform.o(.TRACE)
    format                                   0x08803850   Data          33  rtl876x_lib_platform.o(.TRACE)
    __tagsym$$used                           0x08803874   Number         0  rtl876x_lib_platform.o(.TRACE)
    format                                   0x08803874   Data          23  rtl876x_lib_platform.o(.TRACE)
    __tagsym$$used                           0x0880388c   Number         0  rtl876x_lib_platform.o(.TRACE)
    format                                   0x0880388c   Data          20  rtl876x_lib_platform.o(.TRACE)
    .TRACE                                   0x088038a0   Section      403  gap_config.o(.TRACE)
    __tagsym$$used                           0x088038a0   Number         0  gap_config.o(.TRACE)
    format                                   0x088038a0   Data         250  gap_config.o(.TRACE)
    __tagsym$$used                           0x0880399c   Number         0  gap_config.o(.TRACE)
    format                                   0x0880399c   Data         102  gap_config.o(.TRACE)
    __tagsym$$used                           0x08803a04   Number         0  gap_config.o(.TRACE)
    format                                   0x08803a04   Data          47  gap_config.o(.TRACE)
    .TRACE                                   0x08803a34   Section      472  gap_lib.o(.TRACE)
    __tagsym$$used                           0x08803a34   Number         0  gap_lib.o(.TRACE)
    format                                   0x08803a34   Data         240  gap_lib.o(.TRACE)
    __tagsym$$used                           0x08803b24   Number         0  gap_lib.o(.TRACE)
    format                                   0x08803b24   Data         232  gap_lib.o(.TRACE)
    .TRACE                                   0x08803c0c   Section      724  gap_lib_patch.o(.TRACE)
    __tagsym$$used                           0x08803c0c   Number         0  gap_lib_patch.o(.TRACE)
    format                                   0x08803c0c   Data          48  gap_lib_patch.o(.TRACE)
    __tagsym$$used                           0x08803c3c   Number         0  gap_lib_patch.o(.TRACE)
    format                                   0x08803c3c   Data          55  gap_lib_patch.o(.TRACE)
    __tagsym$$used                           0x08803c74   Number         0  gap_lib_patch.o(.TRACE)
    format                                   0x08803c74   Data          59  gap_lib_patch.o(.TRACE)
    __tagsym$$used                           0x08803cb0   Number         0  gap_lib_patch.o(.TRACE)
    format                                   0x08803cb0   Data          48  gap_lib_patch.o(.TRACE)
    __tagsym$$used                           0x08803ce0   Number         0  gap_lib_patch.o(.TRACE)
    format                                   0x08803ce0   Data          45  gap_lib_patch.o(.TRACE)
    __tagsym$$used                           0x08803d10   Number         0  gap_lib_patch.o(.TRACE)
    format                                   0x08803d10   Data          51  gap_lib_patch.o(.TRACE)
    __tagsym$$used                           0x08803d44   Number         0  gap_lib_patch.o(.TRACE)
    format                                   0x08803d44   Data          29  gap_lib_patch.o(.TRACE)
    __tagsym$$used                           0x08803d64   Number         0  gap_lib_patch.o(.TRACE)
    format                                   0x08803d64   Data          37  gap_lib_patch.o(.TRACE)
    __tagsym$$used                           0x08803d8c   Number         0  gap_lib_patch.o(.TRACE)
    format                                   0x08803d8c   Data          50  gap_lib_patch.o(.TRACE)
    __tagsym$$used                           0x08803dc0   Number         0  gap_lib_patch.o(.TRACE)
    format                                   0x08803dc0   Data          89  gap_lib_patch.o(.TRACE)
    __tagsym$$used                           0x08803e1c   Number         0  gap_lib_patch.o(.TRACE)
    format                                   0x08803e1c   Data          51  gap_lib_patch.o(.TRACE)
    __tagsym$$used                           0x08803e50   Number         0  gap_lib_patch.o(.TRACE)
    format                                   0x08803e50   Data          46  gap_lib_patch.o(.TRACE)
    __tagsym$$used                           0x08803e80   Number         0  gap_lib_patch.o(.TRACE)
    format                                   0x08803e80   Data          62  gap_lib_patch.o(.TRACE)
    __tagsym$$used                           0x08803ec0   Number         0  gap_lib_patch.o(.TRACE)
    format                                   0x08803ec0   Data          32  gap_lib_patch.o(.TRACE)
    .TRACE                                   0x08803ee0   Section       39  platform_misc.o(.TRACE)
    __tagsym$$used                           0x08803ee0   Number         0  platform_misc.o(.TRACE)
    format                                   0x08803ee0   Data          39  platform_misc.o(.TRACE)
    .TRACE                                   0x08803f08   Section       57  data_uart.o(.TRACE)
    __tagsym$$used                           0x08803f08   Number         0  data_uart.o(.TRACE)
    format                                   0x08803f08   Data          57  data_uart.o(.TRACE)
    .TRACE                                   0x08803f44   Section      957  gap_scheduler.o(.TRACE)
    __tagsym$$used                           0x08803f44   Number         0  gap_scheduler.o(.TRACE)
    format                                   0x08803f44   Data          59  gap_scheduler.o(.TRACE)
    __tagsym$$used                           0x08803f80   Number         0  gap_scheduler.o(.TRACE)
    format                                   0x08803f80   Data          63  gap_scheduler.o(.TRACE)
    __tagsym$$used                           0x08803fc0   Number         0  gap_scheduler.o(.TRACE)
    format                                   0x08803fc0   Data          69  gap_scheduler.o(.TRACE)
    __tagsym$$used                           0x08804008   Number         0  gap_scheduler.o(.TRACE)
    format                                   0x08804008   Data          65  gap_scheduler.o(.TRACE)
    __tagsym$$used                           0x0880404c   Number         0  gap_scheduler.o(.TRACE)
    format                                   0x0880404c   Data          70  gap_scheduler.o(.TRACE)
    __tagsym$$used                           0x08804094   Number         0  gap_scheduler.o(.TRACE)
    format                                   0x08804094   Data         127  gap_scheduler.o(.TRACE)
    __tagsym$$used                           0x08804114   Number         0  gap_scheduler.o(.TRACE)
    format                                   0x08804114   Data         115  gap_scheduler.o(.TRACE)
    __tagsym$$used                           0x08804188   Number         0  gap_scheduler.o(.TRACE)
    format                                   0x08804188   Data         109  gap_scheduler.o(.TRACE)
    __tagsym$$used                           0x088041f8   Number         0  gap_scheduler.o(.TRACE)
    format                                   0x088041f8   Data          84  gap_scheduler.o(.TRACE)
    __tagsym$$used                           0x0880424c   Number         0  gap_scheduler.o(.TRACE)
    format                                   0x0880424c   Data          89  gap_scheduler.o(.TRACE)
    __tagsym$$used                           0x088042a8   Number         0  gap_scheduler.o(.TRACE)
    format                                   0x088042a8   Data          89  gap_scheduler.o(.TRACE)
    .TRACE                                   0x08804304   Section      304  mesh_access.o(.TRACE)
    __tagsym$$used                           0x08804304   Number         0  mesh_access.o(.TRACE)
    format                                   0x08804304   Data          43  mesh_access.o(.TRACE)
    __tagsym$$used                           0x08804330   Number         0  mesh_access.o(.TRACE)
    format                                   0x08804330   Data          72  mesh_access.o(.TRACE)
    __tagsym$$used                           0x08804378   Number         0  mesh_access.o(.TRACE)
    format                                   0x08804378   Data          42  mesh_access.o(.TRACE)
    __tagsym$$used                           0x088043a4   Number         0  mesh_access.o(.TRACE)
    format                                   0x088043a4   Data         128  mesh_access.o(.TRACE)
    __tagsym$$used                           0x08804424   Number         0  mesh_access.o(.TRACE)
    format                                   0x08804424   Data          16  mesh_access.o(.TRACE)
    .TRACE                                   0x08804434   Section      246  mesh_bearer.o(.TRACE)
    __tagsym$$used                           0x08804434   Number         0  mesh_bearer.o(.TRACE)
    format                                   0x08804434   Data          57  mesh_bearer.o(.TRACE)
    __tagsym$$used                           0x08804470   Number         0  mesh_bearer.o(.TRACE)
    format                                   0x08804470   Data          78  mesh_bearer.o(.TRACE)
    __tagsym$$used                           0x088044c0   Number         0  mesh_bearer.o(.TRACE)
    format                                   0x088044c0   Data          55  mesh_bearer.o(.TRACE)
    __tagsym$$used                           0x088044f8   Number         0  mesh_bearer.o(.TRACE)
    format                                   0x088044f8   Data          50  mesh_bearer.o(.TRACE)
    .TRACE                                   0x0880452c   Section      440  mesh_beacon.o(.TRACE)
    __tagsym$$used                           0x0880452c   Number         0  mesh_beacon.o(.TRACE)
    format                                   0x0880452c   Data          37  mesh_beacon.o(.TRACE)
    __tagsym$$used                           0x08804554   Number         0  mesh_beacon.o(.TRACE)
    format                                   0x08804554   Data          16  mesh_beacon.o(.TRACE)
    __tagsym$$used                           0x08804564   Number         0  mesh_beacon.o(.TRACE)
    format                                   0x08804564   Data          56  mesh_beacon.o(.TRACE)
    __tagsym$$used                           0x0880459c   Number         0  mesh_beacon.o(.TRACE)
    format                                   0x0880459c   Data          16  mesh_beacon.o(.TRACE)
    __tagsym$$used                           0x088045ac   Number         0  mesh_beacon.o(.TRACE)
    format                                   0x088045ac   Data          47  mesh_beacon.o(.TRACE)
    __tagsym$$used                           0x088045dc   Number         0  mesh_beacon.o(.TRACE)
    format                                   0x088045dc   Data          16  mesh_beacon.o(.TRACE)
    __tagsym$$used                           0x088045ec   Number         0  mesh_beacon.o(.TRACE)
    format                                   0x088045ec   Data          54  mesh_beacon.o(.TRACE)
    __tagsym$$used                           0x08804624   Number         0  mesh_beacon.o(.TRACE)
    format                                   0x08804624   Data          38  mesh_beacon.o(.TRACE)
    __tagsym$$used                           0x0880464c   Number         0  mesh_beacon.o(.TRACE)
    format                                   0x0880464c   Data          16  mesh_beacon.o(.TRACE)
    __tagsym$$used                           0x0880465c   Number         0  mesh_beacon.o(.TRACE)
    format                                   0x0880465c   Data          79  mesh_beacon.o(.TRACE)
    __tagsym$$used                           0x088046ac   Number         0  mesh_beacon.o(.TRACE)
    format                                   0x088046ac   Data          56  mesh_beacon.o(.TRACE)
    .TRACE                                   0x088046e4   Section      550  mesh_common.o(.TRACE)
    __tagsym$$used                           0x088046e4   Number         0  mesh_common.o(.TRACE)
    format                                   0x088046e4   Data          67  mesh_common.o(.TRACE)
    __tagsym$$used                           0x08804728   Number         0  mesh_common.o(.TRACE)
    format                                   0x08804728   Data          68  mesh_common.o(.TRACE)
    __tagsym$$used                           0x0880476c   Number         0  mesh_common.o(.TRACE)
    format                                   0x0880476c   Data          75  mesh_common.o(.TRACE)
    __tagsym$$used                           0x088047b8   Number         0  mesh_common.o(.TRACE)
    format                                   0x088047b8   Data          57  mesh_common.o(.TRACE)
    __tagsym$$used                           0x088047f4   Number         0  mesh_common.o(.TRACE)
    format                                   0x088047f4   Data          79  mesh_common.o(.TRACE)
    __tagsym$$used                           0x08804844   Number         0  mesh_common.o(.TRACE)
    format                                   0x08804844   Data          39  mesh_common.o(.TRACE)
    __tagsym$$used                           0x0880486c   Number         0  mesh_common.o(.TRACE)
    format                                   0x0880486c   Data          55  mesh_common.o(.TRACE)
    __tagsym$$used                           0x088048a4   Number         0  mesh_common.o(.TRACE)
    format                                   0x088048a4   Data          43  mesh_common.o(.TRACE)
    __tagsym$$used                           0x088048d0   Number         0  mesh_common.o(.TRACE)
    format                                   0x088048d0   Data          58  mesh_common.o(.TRACE)
    .TRACE                                   0x0880490c   Section     1751  mesh_provision.o(.TRACE)
    __tagsym$$used                           0x0880490c   Number         0  mesh_provision.o(.TRACE)
    format                                   0x0880490c   Data          42  mesh_provision.o(.TRACE)
    __tagsym$$used                           0x08804938   Number         0  mesh_provision.o(.TRACE)
    format                                   0x08804938   Data          14  mesh_provision.o(.TRACE)
    __tagsym$$used                           0x08804948   Number         0  mesh_provision.o(.TRACE)
    format                                   0x08804948   Data          57  mesh_provision.o(.TRACE)
    __tagsym$$used                           0x08804984   Number         0  mesh_provision.o(.TRACE)
    format                                   0x08804984   Data          57  mesh_provision.o(.TRACE)
    __tagsym$$used                           0x088049c0   Number         0  mesh_provision.o(.TRACE)
    format                                   0x088049c0   Data          42  mesh_provision.o(.TRACE)
    __tagsym$$used                           0x088049ec   Number         0  mesh_provision.o(.TRACE)
    format                                   0x088049ec   Data          14  mesh_provision.o(.TRACE)
    __tagsym$$used                           0x088049fc   Number         0  mesh_provision.o(.TRACE)
    format                                   0x088049fc   Data          43  mesh_provision.o(.TRACE)
    __tagsym$$used                           0x08804a28   Number         0  mesh_provision.o(.TRACE)
    format                                   0x08804a28   Data          14  mesh_provision.o(.TRACE)
    __tagsym$$used                           0x08804a38   Number         0  mesh_provision.o(.TRACE)
    format                                   0x08804a38   Data          52  mesh_provision.o(.TRACE)
    __tagsym$$used                           0x08804a6c   Number         0  mesh_provision.o(.TRACE)
    format                                   0x08804a6c   Data          53  mesh_provision.o(.TRACE)
    __tagsym$$used                           0x08804aa4   Number         0  mesh_provision.o(.TRACE)
    format                                   0x08804aa4   Data          14  mesh_provision.o(.TRACE)
    __tagsym$$used                           0x08804ab4   Number         0  mesh_provision.o(.TRACE)
    format                                   0x08804ab4   Data          65  mesh_provision.o(.TRACE)
    __tagsym$$used                           0x08804af8   Number         0  mesh_provision.o(.TRACE)
    format                                   0x08804af8   Data          61  mesh_provision.o(.TRACE)
    __tagsym$$used                           0x08804b38   Number         0  mesh_provision.o(.TRACE)
    format                                   0x08804b38   Data          53  mesh_provision.o(.TRACE)
    __tagsym$$used                           0x08804b70   Number         0  mesh_provision.o(.TRACE)
    format                                   0x08804b70   Data          14  mesh_provision.o(.TRACE)
    __tagsym$$used                           0x08804b80   Number         0  mesh_provision.o(.TRACE)
    format                                   0x08804b80   Data          48  mesh_provision.o(.TRACE)
    __tagsym$$used                           0x08804bb0   Number         0  mesh_provision.o(.TRACE)
    format                                   0x08804bb0   Data          14  mesh_provision.o(.TRACE)
    __tagsym$$used                           0x08804bc0   Number         0  mesh_provision.o(.TRACE)
    format                                   0x08804bc0   Data          53  mesh_provision.o(.TRACE)
    __tagsym$$used                           0x08804bf8   Number         0  mesh_provision.o(.TRACE)
    format                                   0x08804bf8   Data          14  mesh_provision.o(.TRACE)
    __tagsym$$used                           0x08804c08   Number         0  mesh_provision.o(.TRACE)
    format                                   0x08804c08   Data          14  mesh_provision.o(.TRACE)
    __tagsym$$used                           0x08804c18   Number         0  mesh_provision.o(.TRACE)
    format                                   0x08804c18   Data          51  mesh_provision.o(.TRACE)
    __tagsym$$used                           0x08804c4c   Number         0  mesh_provision.o(.TRACE)
    format                                   0x08804c4c   Data          14  mesh_provision.o(.TRACE)
    __tagsym$$used                           0x08804c5c   Number         0  mesh_provision.o(.TRACE)
    format                                   0x08804c5c   Data          50  mesh_provision.o(.TRACE)
    __tagsym$$used                           0x08804c90   Number         0  mesh_provision.o(.TRACE)
    format                                   0x08804c90   Data          14  mesh_provision.o(.TRACE)
    __tagsym$$used                           0x08804ca0   Number         0  mesh_provision.o(.TRACE)
    format                                   0x08804ca0   Data          73  mesh_provision.o(.TRACE)
    __tagsym$$used                           0x08804cec   Number         0  mesh_provision.o(.TRACE)
    format                                   0x08804cec   Data          14  mesh_provision.o(.TRACE)
    __tagsym$$used                           0x08804cfc   Number         0  mesh_provision.o(.TRACE)
    format                                   0x08804cfc   Data          50  mesh_provision.o(.TRACE)
    __tagsym$$used                           0x08804d30   Number         0  mesh_provision.o(.TRACE)
    format                                   0x08804d30   Data          14  mesh_provision.o(.TRACE)
    __tagsym$$used                           0x08804d40   Number         0  mesh_provision.o(.TRACE)
    format                                   0x08804d40   Data          46  mesh_provision.o(.TRACE)
    __tagsym$$used                           0x08804d70   Number         0  mesh_provision.o(.TRACE)
    format                                   0x08804d70   Data          14  mesh_provision.o(.TRACE)
    __tagsym$$used                           0x08804d80   Number         0  mesh_provision.o(.TRACE)
    format                                   0x08804d80   Data          51  mesh_provision.o(.TRACE)
    __tagsym$$used                           0x08804db4   Number         0  mesh_provision.o(.TRACE)
    format                                   0x08804db4   Data          14  mesh_provision.o(.TRACE)
    __tagsym$$used                           0x08804dc4   Number         0  mesh_provision.o(.TRACE)
    format                                   0x08804dc4   Data          43  mesh_provision.o(.TRACE)
    __tagsym$$used                           0x08804df0   Number         0  mesh_provision.o(.TRACE)
    format                                   0x08804df0   Data          14  mesh_provision.o(.TRACE)
    __tagsym$$used                           0x08804e00   Number         0  mesh_provision.o(.TRACE)
    format                                   0x08804e00   Data          38  mesh_provision.o(.TRACE)
    __tagsym$$used                           0x08804e28   Number         0  mesh_provision.o(.TRACE)
    format                                   0x08804e28   Data          14  mesh_provision.o(.TRACE)
    __tagsym$$used                           0x08804e38   Number         0  mesh_provision.o(.TRACE)
    format                                   0x08804e38   Data          39  mesh_provision.o(.TRACE)
    __tagsym$$used                           0x08804e60   Number         0  mesh_provision.o(.TRACE)
    format                                   0x08804e60   Data          14  mesh_provision.o(.TRACE)
    __tagsym$$used                           0x08804e70   Number         0  mesh_provision.o(.TRACE)
    format                                   0x08804e70   Data          44  mesh_provision.o(.TRACE)
    __tagsym$$used                           0x08804e9c   Number         0  mesh_provision.o(.TRACE)
    format                                   0x08804e9c   Data          14  mesh_provision.o(.TRACE)
    __tagsym$$used                           0x08804eac   Number         0  mesh_provision.o(.TRACE)
    format                                   0x08804eac   Data          45  mesh_provision.o(.TRACE)
    __tagsym$$used                           0x08804edc   Number         0  mesh_provision.o(.TRACE)
    format                                   0x08804edc   Data          45  mesh_provision.o(.TRACE)
    __tagsym$$used                           0x08804f0c   Number         0  mesh_provision.o(.TRACE)
    format                                   0x08804f0c   Data          43  mesh_provision.o(.TRACE)
    __tagsym$$used                           0x08804f38   Number         0  mesh_provision.o(.TRACE)
    format                                   0x08804f38   Data          14  mesh_provision.o(.TRACE)
    __tagsym$$used                           0x08804f48   Number         0  mesh_provision.o(.TRACE)
    format                                   0x08804f48   Data          49  mesh_provision.o(.TRACE)
    __tagsym$$used                           0x08804f7c   Number         0  mesh_provision.o(.TRACE)
    format                                   0x08804f7c   Data          53  mesh_provision.o(.TRACE)
    __tagsym$$used                           0x08804fb4   Number         0  mesh_provision.o(.TRACE)
    format                                   0x08804fb4   Data          47  mesh_provision.o(.TRACE)
    .TRACE                                   0x08804fe4   Section      431  mesh_service.o(.TRACE)
    __tagsym$$used                           0x08804fe4   Number         0  mesh_service.o(.TRACE)
    format                                   0x08804fe4   Data          47  mesh_service.o(.TRACE)
    __tagsym$$used                           0x08805014   Number         0  mesh_service.o(.TRACE)
    format                                   0x08805014   Data          60  mesh_service.o(.TRACE)
    __tagsym$$used                           0x08805050   Number         0  mesh_service.o(.TRACE)
    format                                   0x08805050   Data          61  mesh_service.o(.TRACE)
    __tagsym$$used                           0x08805090   Number         0  mesh_service.o(.TRACE)
    format                                   0x08805090   Data          73  mesh_service.o(.TRACE)
    __tagsym$$used                           0x088050dc   Number         0  mesh_service.o(.TRACE)
    format                                   0x088050dc   Data         100  mesh_service.o(.TRACE)
    __tagsym$$used                           0x08805140   Number         0  mesh_service.o(.TRACE)
    format                                   0x08805140   Data          83  mesh_service.o(.TRACE)
    .TRACE                                   0x08805194   Section     2041  mesh_node.o(.TRACE)
    __tagsym$$used                           0x08805194   Number         0  mesh_node.o(.TRACE)
    format                                   0x08805194   Data          77  mesh_node.o(.TRACE)
    __tagsym$$used                           0x088051e4   Number         0  mesh_node.o(.TRACE)
    format                                   0x088051e4   Data          77  mesh_node.o(.TRACE)
    __tagsym$$used                           0x08805234   Number         0  mesh_node.o(.TRACE)
    format                                   0x08805234   Data          49  mesh_node.o(.TRACE)
    __tagsym$$used                           0x08805268   Number         0  mesh_node.o(.TRACE)
    format                                   0x08805268   Data          83  mesh_node.o(.TRACE)
    __tagsym$$used                           0x088052bc   Number         0  mesh_node.o(.TRACE)
    format                                   0x088052bc   Data          85  mesh_node.o(.TRACE)
    __tagsym$$used                           0x08805314   Number         0  mesh_node.o(.TRACE)
    format                                   0x08805314   Data          78  mesh_node.o(.TRACE)
    __tagsym$$used                           0x08805364   Number         0  mesh_node.o(.TRACE)
    format                                   0x08805364   Data          65  mesh_node.o(.TRACE)
    __tagsym$$used                           0x088053a8   Number         0  mesh_node.o(.TRACE)
    format                                   0x088053a8   Data          77  mesh_node.o(.TRACE)
    __tagsym$$used                           0x088053f8   Number         0  mesh_node.o(.TRACE)
    format                                   0x088053f8   Data          77  mesh_node.o(.TRACE)
    __tagsym$$used                           0x08805448   Number         0  mesh_node.o(.TRACE)
    format                                   0x08805448   Data          49  mesh_node.o(.TRACE)
    __tagsym$$used                           0x0880547c   Number         0  mesh_node.o(.TRACE)
    format                                   0x0880547c   Data          81  mesh_node.o(.TRACE)
    __tagsym$$used                           0x088054d0   Number         0  mesh_node.o(.TRACE)
    format                                   0x088054d0   Data          79  mesh_node.o(.TRACE)
    __tagsym$$used                           0x08805520   Number         0  mesh_node.o(.TRACE)
    format                                   0x08805520   Data          57  mesh_node.o(.TRACE)
    __tagsym$$used                           0x0880555c   Number         0  mesh_node.o(.TRACE)
    format                                   0x0880555c   Data          79  mesh_node.o(.TRACE)
    __tagsym$$used                           0x088055ac   Number         0  mesh_node.o(.TRACE)
    format                                   0x088055ac   Data          53  mesh_node.o(.TRACE)
    __tagsym$$used                           0x088055e4   Number         0  mesh_node.o(.TRACE)
    format                                   0x088055e4   Data          69  mesh_node.o(.TRACE)
    __tagsym$$used                           0x0880562c   Number         0  mesh_node.o(.TRACE)
    format                                   0x0880562c   Data          72  mesh_node.o(.TRACE)
    __tagsym$$used                           0x08805674   Number         0  mesh_node.o(.TRACE)
    format                                   0x08805674   Data          73  mesh_node.o(.TRACE)
    __tagsym$$used                           0x088056c0   Number         0  mesh_node.o(.TRACE)
    format                                   0x088056c0   Data          94  mesh_node.o(.TRACE)
    __tagsym$$used                           0x08805720   Number         0  mesh_node.o(.TRACE)
    format                                   0x08805720   Data          93  mesh_node.o(.TRACE)
    __tagsym$$used                           0x08805780   Number         0  mesh_node.o(.TRACE)
    format                                   0x08805780   Data          53  mesh_node.o(.TRACE)
    __tagsym$$used                           0x088057b8   Number         0  mesh_node.o(.TRACE)
    format                                   0x088057b8   Data          16  mesh_node.o(.TRACE)
    __tagsym$$used                           0x088057c8   Number         0  mesh_node.o(.TRACE)
    format                                   0x088057c8   Data         110  mesh_node.o(.TRACE)
    __tagsym$$used                           0x08805838   Number         0  mesh_node.o(.TRACE)
    format                                   0x08805838   Data         120  mesh_node.o(.TRACE)
    __tagsym$$used                           0x088058b0   Number         0  mesh_node.o(.TRACE)
    format                                   0x088058b0   Data          76  mesh_node.o(.TRACE)
    __tagsym$$used                           0x088058fc   Number         0  mesh_node.o(.TRACE)
    format                                   0x088058fc   Data          81  mesh_node.o(.TRACE)
    __tagsym$$used                           0x08805950   Number         0  mesh_node.o(.TRACE)
    format                                   0x08805950   Data          61  mesh_node.o(.TRACE)
    .TRACE                                   0x08805990   Section     2669  friendship_fn.o(.TRACE)
    __tagsym$$used                           0x08805990   Number         0  friendship_fn.o(.TRACE)
    format                                   0x08805990   Data          50  friendship_fn.o(.TRACE)
    __tagsym$$used                           0x088059c4   Number         0  friendship_fn.o(.TRACE)
    format                                   0x088059c4   Data          62  friendship_fn.o(.TRACE)
    __tagsym$$used                           0x08805a04   Number         0  friendship_fn.o(.TRACE)
    format                                   0x08805a04   Data          62  friendship_fn.o(.TRACE)
    __tagsym$$used                           0x08805a44   Number         0  friendship_fn.o(.TRACE)
    format                                   0x08805a44   Data         104  friendship_fn.o(.TRACE)
    __tagsym$$used                           0x08805aac   Number         0  friendship_fn.o(.TRACE)
    format                                   0x08805aac   Data          59  friendship_fn.o(.TRACE)
    __tagsym$$used                           0x08805ae8   Number         0  friendship_fn.o(.TRACE)
    format                                   0x08805ae8   Data          65  friendship_fn.o(.TRACE)
    __tagsym$$used                           0x08805b2c   Number         0  friendship_fn.o(.TRACE)
    format                                   0x08805b2c   Data          68  friendship_fn.o(.TRACE)
    __tagsym$$used                           0x08805b70   Number         0  friendship_fn.o(.TRACE)
    format                                   0x08805b70   Data          93  friendship_fn.o(.TRACE)
    __tagsym$$used                           0x08805bd0   Number         0  friendship_fn.o(.TRACE)
    format                                   0x08805bd0   Data          97  friendship_fn.o(.TRACE)
    __tagsym$$used                           0x08805c34   Number         0  friendship_fn.o(.TRACE)
    format                                   0x08805c34   Data         113  friendship_fn.o(.TRACE)
    __tagsym$$used                           0x08805ca8   Number         0  friendship_fn.o(.TRACE)
    format                                   0x08805ca8   Data          96  friendship_fn.o(.TRACE)
    __tagsym$$used                           0x08805d08   Number         0  friendship_fn.o(.TRACE)
    format                                   0x08805d08   Data          70  friendship_fn.o(.TRACE)
    __tagsym$$used                           0x08805d50   Number         0  friendship_fn.o(.TRACE)
    format                                   0x08805d50   Data          80  friendship_fn.o(.TRACE)
    __tagsym$$used                           0x08805da0   Number         0  friendship_fn.o(.TRACE)
    format                                   0x08805da0   Data         150  friendship_fn.o(.TRACE)
    __tagsym$$used                           0x08805e38   Number         0  friendship_fn.o(.TRACE)
    format                                   0x08805e38   Data          58  friendship_fn.o(.TRACE)
    __tagsym$$used                           0x08805e74   Number         0  friendship_fn.o(.TRACE)
    format                                   0x08805e74   Data          64  friendship_fn.o(.TRACE)
    __tagsym$$used                           0x08805eb4   Number         0  friendship_fn.o(.TRACE)
    format                                   0x08805eb4   Data          61  friendship_fn.o(.TRACE)
    __tagsym$$used                           0x08805ef4   Number         0  friendship_fn.o(.TRACE)
    format                                   0x08805ef4   Data          73  friendship_fn.o(.TRACE)
    __tagsym$$used                           0x08805f40   Number         0  friendship_fn.o(.TRACE)
    format                                   0x08805f40   Data          81  friendship_fn.o(.TRACE)
    __tagsym$$used                           0x08805f94   Number         0  friendship_fn.o(.TRACE)
    format                                   0x08805f94   Data          65  friendship_fn.o(.TRACE)
    __tagsym$$used                           0x08805fd8   Number         0  friendship_fn.o(.TRACE)
    format                                   0x08805fd8   Data         106  friendship_fn.o(.TRACE)
    __tagsym$$used                           0x08806044   Number         0  friendship_fn.o(.TRACE)
    format                                   0x08806044   Data          91  friendship_fn.o(.TRACE)
    __tagsym$$used                           0x088060a0   Number         0  friendship_fn.o(.TRACE)
    format                                   0x088060a0   Data          47  friendship_fn.o(.TRACE)
    __tagsym$$used                           0x088060d0   Number         0  friendship_fn.o(.TRACE)
    format                                   0x088060d0   Data          47  friendship_fn.o(.TRACE)
    __tagsym$$used                           0x08806100   Number         0  friendship_fn.o(.TRACE)
    format                                   0x08806100   Data          80  friendship_fn.o(.TRACE)
    __tagsym$$used                           0x08806150   Number         0  friendship_fn.o(.TRACE)
    format                                   0x08806150   Data          73  friendship_fn.o(.TRACE)
    __tagsym$$used                           0x0880619c   Number         0  friendship_fn.o(.TRACE)
    format                                   0x0880619c   Data          56  friendship_fn.o(.TRACE)
    __tagsym$$used                           0x088061d4   Number         0  friendship_fn.o(.TRACE)
    format                                   0x088061d4   Data          99  friendship_fn.o(.TRACE)
    __tagsym$$used                           0x08806238   Number         0  friendship_fn.o(.TRACE)
    format                                   0x08806238   Data          96  friendship_fn.o(.TRACE)
    __tagsym$$used                           0x08806298   Number         0  friendship_fn.o(.TRACE)
    format                                   0x08806298   Data         101  friendship_fn.o(.TRACE)
    __tagsym$$used                           0x08806300   Number         0  friendship_fn.o(.TRACE)
    format                                   0x08806300   Data          34  friendship_fn.o(.TRACE)
    __tagsym$$used                           0x08806324   Number         0  friendship_fn.o(.TRACE)
    format                                   0x08806324   Data          55  friendship_fn.o(.TRACE)
    __tagsym$$used                           0x0880635c   Number         0  friendship_fn.o(.TRACE)
    format                                   0x0880635c   Data          61  friendship_fn.o(.TRACE)
    __tagsym$$used                           0x0880639c   Number         0  friendship_fn.o(.TRACE)
    format                                   0x0880639c   Data          52  friendship_fn.o(.TRACE)
    __tagsym$$used                           0x088063d0   Number         0  friendship_fn.o(.TRACE)
    format                                   0x088063d0   Data          45  friendship_fn.o(.TRACE)
    .TRACE                                   0x08806400   Section      740  provision_device.o(.TRACE)
    __tagsym$$used                           0x08806400   Number         0  provision_device.o(.TRACE)
    format                                   0x08806400   Data          43  provision_device.o(.TRACE)
    __tagsym$$used                           0x0880642c   Number         0  provision_device.o(.TRACE)
    format                                   0x0880642c   Data          14  provision_device.o(.TRACE)
    __tagsym$$used                           0x0880643c   Number         0  provision_device.o(.TRACE)
    format                                   0x0880643c   Data          48  provision_device.o(.TRACE)
    __tagsym$$used                           0x0880646c   Number         0  provision_device.o(.TRACE)
    format                                   0x0880646c   Data          54  provision_device.o(.TRACE)
    __tagsym$$used                           0x088064a4   Number         0  provision_device.o(.TRACE)
    format                                   0x088064a4   Data          63  provision_device.o(.TRACE)
    __tagsym$$used                           0x088064e4   Number         0  provision_device.o(.TRACE)
    format                                   0x088064e4   Data          64  provision_device.o(.TRACE)
    __tagsym$$used                           0x08806524   Number         0  provision_device.o(.TRACE)
    format                                   0x08806524   Data          74  provision_device.o(.TRACE)
    __tagsym$$used                           0x08806570   Number         0  provision_device.o(.TRACE)
    format                                   0x08806570   Data          92  provision_device.o(.TRACE)
    __tagsym$$used                           0x088065cc   Number         0  provision_device.o(.TRACE)
    format                                   0x088065cc   Data         129  provision_device.o(.TRACE)
    __tagsym$$used                           0x08806650   Number         0  provision_device.o(.TRACE)
    format                                   0x08806650   Data          77  provision_device.o(.TRACE)
    __tagsym$$used                           0x088066a0   Number         0  provision_device.o(.TRACE)
    format                                   0x088066a0   Data          14  provision_device.o(.TRACE)
    __tagsym$$used                           0x088066b0   Number         0  provision_device.o(.TRACE)
    format                                   0x088066b0   Data          52  provision_device.o(.TRACE)
    .TRACE                                   0x088066e4   Section      426  mesh_flash.o(.TRACE)
    __tagsym$$used                           0x088066e4   Number         0  mesh_flash.o(.TRACE)
    format                                   0x088066e4   Data          55  mesh_flash.o(.TRACE)
    __tagsym$$used                           0x0880671c   Number         0  mesh_flash.o(.TRACE)
    format                                   0x0880671c   Data          99  mesh_flash.o(.TRACE)
    __tagsym$$used                           0x08806780   Number         0  mesh_flash.o(.TRACE)
    format                                   0x08806780   Data         113  mesh_flash.o(.TRACE)
    __tagsym$$used                           0x088067f4   Number         0  mesh_flash.o(.TRACE)
    format                                   0x088067f4   Data         101  mesh_flash.o(.TRACE)
    __tagsym$$used                           0x0880685c   Number         0  mesh_flash.o(.TRACE)
    format                                   0x0880685c   Data          50  mesh_flash.o(.TRACE)
    .TRACE                                   0x08806890   Section       41  xtx_flash_otp.o(.TRACE)
    __tagsym$$used                           0x08806890   Number         0  xtx_flash_otp.o(.TRACE)
    format                                   0x08806890   Data          41  xtx_flash_otp.o(.TRACE)
    .TRACE                                   0x088068bc   Section      322  provision_server.o(.TRACE)
    __tagsym$$used                           0x088068bc   Number         0  provision_server.o(.TRACE)
    format                                   0x088068bc   Data          76  provision_server.o(.TRACE)
    __tagsym$$used                           0x08806908   Number         0  provision_server.o(.TRACE)
    format                                   0x08806908   Data          62  provision_server.o(.TRACE)
    __tagsym$$used                           0x08806948   Number         0  provision_server.o(.TRACE)
    format                                   0x08806948   Data          64  provision_server.o(.TRACE)
    __tagsym$$used                           0x08806988   Number         0  provision_server.o(.TRACE)
    format                                   0x08806988   Data          71  provision_server.o(.TRACE)
    __tagsym$$used                           0x088069d0   Number         0  provision_server.o(.TRACE)
    format                                   0x088069d0   Data          46  provision_server.o(.TRACE)
    .TRACE                                   0x08806a00   Section       51  provision_service.o(.TRACE)
    __tagsym$$used                           0x08806a00   Number         0  provision_service.o(.TRACE)
    format                                   0x08806a00   Data          51  provision_service.o(.TRACE)
    .TRACE                                   0x08806a34   Section      367  proxy_server.o(.TRACE)
    __tagsym$$used                           0x08806a34   Number         0  proxy_server.o(.TRACE)
    format                                   0x08806a34   Data         113  proxy_server.o(.TRACE)
    __tagsym$$used                           0x08806aa8   Number         0  proxy_server.o(.TRACE)
    format                                   0x08806aa8   Data          63  proxy_server.o(.TRACE)
    __tagsym$$used                           0x08806ae8   Number         0  proxy_server.o(.TRACE)
    format                                   0x08806ae8   Data          72  proxy_server.o(.TRACE)
    __tagsym$$used                           0x08806b30   Number         0  proxy_server.o(.TRACE)
    format                                   0x08806b30   Data          66  proxy_server.o(.TRACE)
    __tagsym$$used                           0x08806b74   Number         0  proxy_server.o(.TRACE)
    format                                   0x08806b74   Data          47  proxy_server.o(.TRACE)
    .TRACE                                   0x08806ba4   Section     2749  mesh_transport.o(.TRACE)
    __tagsym$$used                           0x08806ba4   Number         0  mesh_transport.o(.TRACE)
    format                                   0x08806ba4   Data          65  mesh_transport.o(.TRACE)
    __tagsym$$used                           0x08806be8   Number         0  mesh_transport.o(.TRACE)
    format                                   0x08806be8   Data          65  mesh_transport.o(.TRACE)
    __tagsym$$used                           0x08806c2c   Number         0  mesh_transport.o(.TRACE)
    format                                   0x08806c2c   Data          76  mesh_transport.o(.TRACE)
    __tagsym$$used                           0x08806c78   Number         0  mesh_transport.o(.TRACE)
    format                                   0x08806c78   Data          42  mesh_transport.o(.TRACE)
    __tagsym$$used                           0x08806ca4   Number         0  mesh_transport.o(.TRACE)
    format                                   0x08806ca4   Data          58  mesh_transport.o(.TRACE)
    __tagsym$$used                           0x08806ce0   Number         0  mesh_transport.o(.TRACE)
    format                                   0x08806ce0   Data          94  mesh_transport.o(.TRACE)
    __tagsym$$used                           0x08806d40   Number         0  mesh_transport.o(.TRACE)
    format                                   0x08806d40   Data          79  mesh_transport.o(.TRACE)
    __tagsym$$used                           0x08806d90   Number         0  mesh_transport.o(.TRACE)
    format                                   0x08806d90   Data          86  mesh_transport.o(.TRACE)
    __tagsym$$used                           0x08806de8   Number         0  mesh_transport.o(.TRACE)
    format                                   0x08806de8   Data          89  mesh_transport.o(.TRACE)
    __tagsym$$used                           0x08806e44   Number         0  mesh_transport.o(.TRACE)
    format                                   0x08806e44   Data         127  mesh_transport.o(.TRACE)
    __tagsym$$used                           0x08806ec4   Number         0  mesh_transport.o(.TRACE)
    format                                   0x08806ec4   Data          19  mesh_transport.o(.TRACE)
    __tagsym$$used                           0x08806ed8   Number         0  mesh_transport.o(.TRACE)
    format                                   0x08806ed8   Data          59  mesh_transport.o(.TRACE)
    __tagsym$$used                           0x08806f14   Number         0  mesh_transport.o(.TRACE)
    format                                   0x08806f14   Data          77  mesh_transport.o(.TRACE)
    __tagsym$$used                           0x08806f64   Number         0  mesh_transport.o(.TRACE)
    format                                   0x08806f64   Data          74  mesh_transport.o(.TRACE)
    __tagsym$$used                           0x08806fb0   Number         0  mesh_transport.o(.TRACE)
    format                                   0x08806fb0   Data         106  mesh_transport.o(.TRACE)
    __tagsym$$used                           0x0880701c   Number         0  mesh_transport.o(.TRACE)
    format                                   0x0880701c   Data          88  mesh_transport.o(.TRACE)
    __tagsym$$used                           0x08807074   Number         0  mesh_transport.o(.TRACE)
    format                                   0x08807074   Data          74  mesh_transport.o(.TRACE)
    __tagsym$$used                           0x088070c0   Number         0  mesh_transport.o(.TRACE)
    format                                   0x088070c0   Data          56  mesh_transport.o(.TRACE)
    __tagsym$$used                           0x088070f8   Number         0  mesh_transport.o(.TRACE)
    format                                   0x088070f8   Data          79  mesh_transport.o(.TRACE)
    __tagsym$$used                           0x08807148   Number         0  mesh_transport.o(.TRACE)
    format                                   0x08807148   Data          86  mesh_transport.o(.TRACE)
    __tagsym$$used                           0x088071a0   Number         0  mesh_transport.o(.TRACE)
    format                                   0x088071a0   Data          52  mesh_transport.o(.TRACE)
    __tagsym$$used                           0x088071d4   Number         0  mesh_transport.o(.TRACE)
    format                                   0x088071d4   Data          72  mesh_transport.o(.TRACE)
    __tagsym$$used                           0x0880721c   Number         0  mesh_transport.o(.TRACE)
    format                                   0x0880721c   Data          54  mesh_transport.o(.TRACE)
    __tagsym$$used                           0x08807254   Number         0  mesh_transport.o(.TRACE)
    format                                   0x08807254   Data          60  mesh_transport.o(.TRACE)
    __tagsym$$used                           0x08807290   Number         0  mesh_transport.o(.TRACE)
    format                                   0x08807290   Data          67  mesh_transport.o(.TRACE)
    __tagsym$$used                           0x088072d4   Number         0  mesh_transport.o(.TRACE)
    format                                   0x088072d4   Data          67  mesh_transport.o(.TRACE)
    __tagsym$$used                           0x08807318   Number         0  mesh_transport.o(.TRACE)
    format                                   0x08807318   Data          75  mesh_transport.o(.TRACE)
    __tagsym$$used                           0x08807364   Number         0  mesh_transport.o(.TRACE)
    format                                   0x08807364   Data          60  mesh_transport.o(.TRACE)
    __tagsym$$used                           0x088073a0   Number         0  mesh_transport.o(.TRACE)
    format                                   0x088073a0   Data          72  mesh_transport.o(.TRACE)
    __tagsym$$used                           0x088073e8   Number         0  mesh_transport.o(.TRACE)
    format                                   0x088073e8   Data          65  mesh_transport.o(.TRACE)
    __tagsym$$used                           0x0880742c   Number         0  mesh_transport.o(.TRACE)
    format                                   0x0880742c   Data         104  mesh_transport.o(.TRACE)
    __tagsym$$used                           0x08807494   Number         0  mesh_transport.o(.TRACE)
    format                                   0x08807494   Data          71  mesh_transport.o(.TRACE)
    __tagsym$$used                           0x088074dc   Number         0  mesh_transport.o(.TRACE)
    format                                   0x088074dc   Data          76  mesh_transport.o(.TRACE)
    __tagsym$$used                           0x08807528   Number         0  mesh_transport.o(.TRACE)
    format                                   0x08807528   Data          68  mesh_transport.o(.TRACE)
    __tagsym$$used                           0x0880756c   Number         0  mesh_transport.o(.TRACE)
    format                                   0x0880756c   Data          79  mesh_transport.o(.TRACE)
    __tagsym$$used                           0x088075bc   Number         0  mesh_transport.o(.TRACE)
    format                                   0x088075bc   Data         108  mesh_transport.o(.TRACE)
    __tagsym$$used                           0x08807628   Number         0  mesh_transport.o(.TRACE)
    format                                   0x08807628   Data          57  mesh_transport.o(.TRACE)
    .TRACE                                   0x08807664   Section     1015  mesh_network.o(.TRACE)
    __tagsym$$used                           0x08807664   Number         0  mesh_network.o(.TRACE)
    format                                   0x08807664   Data          66  mesh_network.o(.TRACE)
    __tagsym$$used                           0x088076a8   Number         0  mesh_network.o(.TRACE)
    format                                   0x088076a8   Data          53  mesh_network.o(.TRACE)
    __tagsym$$used                           0x088076e0   Number         0  mesh_network.o(.TRACE)
    format                                   0x088076e0   Data          53  mesh_network.o(.TRACE)
    __tagsym$$used                           0x08807718   Number         0  mesh_network.o(.TRACE)
    format                                   0x08807718   Data         120  mesh_network.o(.TRACE)
    __tagsym$$used                           0x08807790   Number         0  mesh_network.o(.TRACE)
    format                                   0x08807790   Data          17  mesh_network.o(.TRACE)
    __tagsym$$used                           0x088077a4   Number         0  mesh_network.o(.TRACE)
    format                                   0x088077a4   Data          82  mesh_network.o(.TRACE)
    __tagsym$$used                           0x088077f8   Number         0  mesh_network.o(.TRACE)
    format                                   0x088077f8   Data          73  mesh_network.o(.TRACE)
    __tagsym$$used                           0x08807844   Number         0  mesh_network.o(.TRACE)
    format                                   0x08807844   Data          71  mesh_network.o(.TRACE)
    __tagsym$$used                           0x0880788c   Number         0  mesh_network.o(.TRACE)
    format                                   0x0880788c   Data          81  mesh_network.o(.TRACE)
    __tagsym$$used                           0x088078e0   Number         0  mesh_network.o(.TRACE)
    format                                   0x088078e0   Data          73  mesh_network.o(.TRACE)
    __tagsym$$used                           0x0880792c   Number         0  mesh_network.o(.TRACE)
    format                                   0x0880792c   Data          66  mesh_network.o(.TRACE)
    __tagsym$$used                           0x08807970   Number         0  mesh_network.o(.TRACE)
    format                                   0x08807970   Data          74  mesh_network.o(.TRACE)
    __tagsym$$used                           0x088079bc   Number         0  mesh_network.o(.TRACE)
    format                                   0x088079bc   Data         159  mesh_network.o(.TRACE)
    .TRACE                                   0x08807a5c   Section     2954  mesh_security.o(.TRACE)
    __tagsym$$used                           0x08807a5c   Number         0  mesh_security.o(.TRACE)
    format                                   0x08807a5c   Data          32  mesh_security.o(.TRACE)
    __tagsym$$used                           0x08807a7c   Number         0  mesh_security.o(.TRACE)
    format                                   0x08807a7c   Data          18  mesh_security.o(.TRACE)
    __tagsym$$used                           0x08807a90   Number         0  mesh_security.o(.TRACE)
    format                                   0x08807a90   Data          29  mesh_security.o(.TRACE)
    __tagsym$$used                           0x08807ab0   Number         0  mesh_security.o(.TRACE)
    format                                   0x08807ab0   Data          18  mesh_security.o(.TRACE)
    __tagsym$$used                           0x08807ac4   Number         0  mesh_security.o(.TRACE)
    format                                   0x08807ac4   Data          29  mesh_security.o(.TRACE)
    __tagsym$$used                           0x08807ae4   Number         0  mesh_security.o(.TRACE)
    format                                   0x08807ae4   Data          18  mesh_security.o(.TRACE)
    __tagsym$$used                           0x08807af8   Number         0  mesh_security.o(.TRACE)
    format                                   0x08807af8   Data          43  mesh_security.o(.TRACE)
    __tagsym$$used                           0x08807b24   Number         0  mesh_security.o(.TRACE)
    format                                   0x08807b24   Data          18  mesh_security.o(.TRACE)
    __tagsym$$used                           0x08807b38   Number         0  mesh_security.o(.TRACE)
    format                                   0x08807b38   Data          42  mesh_security.o(.TRACE)
    __tagsym$$used                           0x08807b64   Number         0  mesh_security.o(.TRACE)
    format                                   0x08807b64   Data          18  mesh_security.o(.TRACE)
    __tagsym$$used                           0x08807b78   Number         0  mesh_security.o(.TRACE)
    format                                   0x08807b78   Data          42  mesh_security.o(.TRACE)
    __tagsym$$used                           0x08807ba4   Number         0  mesh_security.o(.TRACE)
    format                                   0x08807ba4   Data          18  mesh_security.o(.TRACE)
    __tagsym$$used                           0x08807bb8   Number         0  mesh_security.o(.TRACE)
    format                                   0x08807bb8   Data          32  mesh_security.o(.TRACE)
    __tagsym$$used                           0x08807bd8   Number         0  mesh_security.o(.TRACE)
    format                                   0x08807bd8   Data          18  mesh_security.o(.TRACE)
    __tagsym$$used                           0x08807bec   Number         0  mesh_security.o(.TRACE)
    format                                   0x08807bec   Data          29  mesh_security.o(.TRACE)
    __tagsym$$used                           0x08807c0c   Number         0  mesh_security.o(.TRACE)
    format                                   0x08807c0c   Data          18  mesh_security.o(.TRACE)
    __tagsym$$used                           0x08807c20   Number         0  mesh_security.o(.TRACE)
    format                                   0x08807c20   Data          30  mesh_security.o(.TRACE)
    __tagsym$$used                           0x08807c40   Number         0  mesh_security.o(.TRACE)
    format                                   0x08807c40   Data          18  mesh_security.o(.TRACE)
    __tagsym$$used                           0x08807c54   Number         0  mesh_security.o(.TRACE)
    format                                   0x08807c54   Data          33  mesh_security.o(.TRACE)
    __tagsym$$used                           0x08807c78   Number         0  mesh_security.o(.TRACE)
    format                                   0x08807c78   Data          18  mesh_security.o(.TRACE)
    __tagsym$$used                           0x08807c8c   Number         0  mesh_security.o(.TRACE)
    format                                   0x08807c8c   Data          32  mesh_security.o(.TRACE)
    __tagsym$$used                           0x08807cac   Number         0  mesh_security.o(.TRACE)
    format                                   0x08807cac   Data          18  mesh_security.o(.TRACE)
    __tagsym$$used                           0x08807cc0   Number         0  mesh_security.o(.TRACE)
    format                                   0x08807cc0   Data          29  mesh_security.o(.TRACE)
    __tagsym$$used                           0x08807ce0   Number         0  mesh_security.o(.TRACE)
    format                                   0x08807ce0   Data          18  mesh_security.o(.TRACE)
    __tagsym$$used                           0x08807cf4   Number         0  mesh_security.o(.TRACE)
    format                                   0x08807cf4   Data          43  mesh_security.o(.TRACE)
    __tagsym$$used                           0x08807d20   Number         0  mesh_security.o(.TRACE)
    format                                   0x08807d20   Data          18  mesh_security.o(.TRACE)
    __tagsym$$used                           0x08807d34   Number         0  mesh_security.o(.TRACE)
    format                                   0x08807d34   Data          43  mesh_security.o(.TRACE)
    __tagsym$$used                           0x08807d60   Number         0  mesh_security.o(.TRACE)
    format                                   0x08807d60   Data          18  mesh_security.o(.TRACE)
    __tagsym$$used                           0x08807d74   Number         0  mesh_security.o(.TRACE)
    format                                   0x08807d74   Data          37  mesh_security.o(.TRACE)
    __tagsym$$used                           0x08807d9c   Number         0  mesh_security.o(.TRACE)
    format                                   0x08807d9c   Data          18  mesh_security.o(.TRACE)
    __tagsym$$used                           0x08807db0   Number         0  mesh_security.o(.TRACE)
    format                                   0x08807db0   Data          37  mesh_security.o(.TRACE)
    __tagsym$$used                           0x08807dd8   Number         0  mesh_security.o(.TRACE)
    format                                   0x08807dd8   Data          18  mesh_security.o(.TRACE)
    __tagsym$$used                           0x08807dec   Number         0  mesh_security.o(.TRACE)
    format                                   0x08807dec   Data          47  mesh_security.o(.TRACE)
    __tagsym$$used                           0x08807e1c   Number         0  mesh_security.o(.TRACE)
    format                                   0x08807e1c   Data          43  mesh_security.o(.TRACE)
    __tagsym$$used                           0x08807e48   Number         0  mesh_security.o(.TRACE)
    format                                   0x08807e48   Data          18  mesh_security.o(.TRACE)
    __tagsym$$used                           0x08807e5c   Number         0  mesh_security.o(.TRACE)
    format                                   0x08807e5c   Data          41  mesh_security.o(.TRACE)
    __tagsym$$used                           0x08807e88   Number         0  mesh_security.o(.TRACE)
    format                                   0x08807e88   Data          18  mesh_security.o(.TRACE)
    __tagsym$$used                           0x08807e9c   Number         0  mesh_security.o(.TRACE)
    format                                   0x08807e9c   Data          48  mesh_security.o(.TRACE)
    __tagsym$$used                           0x08807ecc   Number         0  mesh_security.o(.TRACE)
    format                                   0x08807ecc   Data          18  mesh_security.o(.TRACE)
    __tagsym$$used                           0x08807ee0   Number         0  mesh_security.o(.TRACE)
    format                                   0x08807ee0   Data          44  mesh_security.o(.TRACE)
    __tagsym$$used                           0x08807f0c   Number         0  mesh_security.o(.TRACE)
    format                                   0x08807f0c   Data          18  mesh_security.o(.TRACE)
    __tagsym$$used                           0x08807f20   Number         0  mesh_security.o(.TRACE)
    format                                   0x08807f20   Data          42  mesh_security.o(.TRACE)
    __tagsym$$used                           0x08807f4c   Number         0  mesh_security.o(.TRACE)
    format                                   0x08807f4c   Data          18  mesh_security.o(.TRACE)
    __tagsym$$used                           0x08807f60   Number         0  mesh_security.o(.TRACE)
    format                                   0x08807f60   Data          41  mesh_security.o(.TRACE)
    __tagsym$$used                           0x08807f8c   Number         0  mesh_security.o(.TRACE)
    format                                   0x08807f8c   Data          18  mesh_security.o(.TRACE)
    __tagsym$$used                           0x08807fa0   Number         0  mesh_security.o(.TRACE)
    format                                   0x08807fa0   Data          39  mesh_security.o(.TRACE)
    __tagsym$$used                           0x08807fc8   Number         0  mesh_security.o(.TRACE)
    format                                   0x08807fc8   Data          18  mesh_security.o(.TRACE)
    __tagsym$$used                           0x08807fdc   Number         0  mesh_security.o(.TRACE)
    format                                   0x08807fdc   Data          44  mesh_security.o(.TRACE)
    __tagsym$$used                           0x08808008   Number         0  mesh_security.o(.TRACE)
    format                                   0x08808008   Data          18  mesh_security.o(.TRACE)
    __tagsym$$used                           0x0880801c   Number         0  mesh_security.o(.TRACE)
    format                                   0x0880801c   Data          42  mesh_security.o(.TRACE)
    __tagsym$$used                           0x08808048   Number         0  mesh_security.o(.TRACE)
    format                                   0x08808048   Data          18  mesh_security.o(.TRACE)
    __tagsym$$used                           0x0880805c   Number         0  mesh_security.o(.TRACE)
    format                                   0x0880805c   Data          42  mesh_security.o(.TRACE)
    __tagsym$$used                           0x08808088   Number         0  mesh_security.o(.TRACE)
    format                                   0x08808088   Data          18  mesh_security.o(.TRACE)
    __tagsym$$used                           0x0880809c   Number         0  mesh_security.o(.TRACE)
    format                                   0x0880809c   Data          46  mesh_security.o(.TRACE)
    __tagsym$$used                           0x088080cc   Number         0  mesh_security.o(.TRACE)
    format                                   0x088080cc   Data          18  mesh_security.o(.TRACE)
    __tagsym$$used                           0x088080e0   Number         0  mesh_security.o(.TRACE)
    format                                   0x088080e0   Data          52  mesh_security.o(.TRACE)
    __tagsym$$used                           0x08808114   Number         0  mesh_security.o(.TRACE)
    format                                   0x08808114   Data          18  mesh_security.o(.TRACE)
    __tagsym$$used                           0x08808128   Number         0  mesh_security.o(.TRACE)
    format                                   0x08808128   Data          50  mesh_security.o(.TRACE)
    __tagsym$$used                           0x0880815c   Number         0  mesh_security.o(.TRACE)
    format                                   0x0880815c   Data          18  mesh_security.o(.TRACE)
    __tagsym$$used                           0x08808170   Number         0  mesh_security.o(.TRACE)
    format                                   0x08808170   Data          36  mesh_security.o(.TRACE)
    __tagsym$$used                           0x08808194   Number         0  mesh_security.o(.TRACE)
    format                                   0x08808194   Data          55  mesh_security.o(.TRACE)
    __tagsym$$used                           0x088081cc   Number         0  mesh_security.o(.TRACE)
    format                                   0x088081cc   Data          18  mesh_security.o(.TRACE)
    __tagsym$$used                           0x088081e0   Number         0  mesh_security.o(.TRACE)
    format                                   0x088081e0   Data          40  mesh_security.o(.TRACE)
    __tagsym$$used                           0x08808208   Number         0  mesh_security.o(.TRACE)
    format                                   0x08808208   Data          18  mesh_security.o(.TRACE)
    __tagsym$$used                           0x0880821c   Number         0  mesh_security.o(.TRACE)
    format                                   0x0880821c   Data          55  mesh_security.o(.TRACE)
    __tagsym$$used                           0x08808254   Number         0  mesh_security.o(.TRACE)
    format                                   0x08808254   Data          18  mesh_security.o(.TRACE)
    __tagsym$$used                           0x08808268   Number         0  mesh_security.o(.TRACE)
    format                                   0x08808268   Data          40  mesh_security.o(.TRACE)
    __tagsym$$used                           0x08808290   Number         0  mesh_security.o(.TRACE)
    format                                   0x08808290   Data          18  mesh_security.o(.TRACE)
    __tagsym$$used                           0x088082a4   Number         0  mesh_security.o(.TRACE)
    format                                   0x088082a4   Data          50  mesh_security.o(.TRACE)
    __tagsym$$used                           0x088082d8   Number         0  mesh_security.o(.TRACE)
    format                                   0x088082d8   Data          18  mesh_security.o(.TRACE)
    __tagsym$$used                           0x088082ec   Number         0  mesh_security.o(.TRACE)
    format                                   0x088082ec   Data          52  mesh_security.o(.TRACE)
    __tagsym$$used                           0x08808320   Number         0  mesh_security.o(.TRACE)
    format                                   0x08808320   Data          18  mesh_security.o(.TRACE)
    __tagsym$$used                           0x08808334   Number         0  mesh_security.o(.TRACE)
    format                                   0x08808334   Data          49  mesh_security.o(.TRACE)
    __tagsym$$used                           0x08808368   Number         0  mesh_security.o(.TRACE)
    format                                   0x08808368   Data          18  mesh_security.o(.TRACE)
    __tagsym$$used                           0x0880837c   Number         0  mesh_security.o(.TRACE)
    format                                   0x0880837c   Data          36  mesh_security.o(.TRACE)
    __tagsym$$used                           0x088083a0   Number         0  mesh_security.o(.TRACE)
    format                                   0x088083a0   Data          52  mesh_security.o(.TRACE)
    __tagsym$$used                           0x088083d4   Number         0  mesh_security.o(.TRACE)
    format                                   0x088083d4   Data          18  mesh_security.o(.TRACE)
    __tagsym$$used                           0x088083e8   Number         0  mesh_security.o(.TRACE)
    format                                   0x088083e8   Data          38  mesh_security.o(.TRACE)
    __tagsym$$used                           0x08808410   Number         0  mesh_security.o(.TRACE)
    format                                   0x08808410   Data          18  mesh_security.o(.TRACE)
    __tagsym$$used                           0x08808424   Number         0  mesh_security.o(.TRACE)
    format                                   0x08808424   Data          41  mesh_security.o(.TRACE)
    __tagsym$$used                           0x08808450   Number         0  mesh_security.o(.TRACE)
    format                                   0x08808450   Data          18  mesh_security.o(.TRACE)
    __tagsym$$used                           0x08808464   Number         0  mesh_security.o(.TRACE)
    format                                   0x08808464   Data          38  mesh_security.o(.TRACE)
    __tagsym$$used                           0x0880848c   Number         0  mesh_security.o(.TRACE)
    format                                   0x0880848c   Data          18  mesh_security.o(.TRACE)
    __tagsym$$used                           0x088084a0   Number         0  mesh_security.o(.TRACE)
    format                                   0x088084a0   Data          38  mesh_security.o(.TRACE)
    __tagsym$$used                           0x088084c8   Number         0  mesh_security.o(.TRACE)
    format                                   0x088084c8   Data          18  mesh_security.o(.TRACE)
    __tagsym$$used                           0x088084dc   Number         0  mesh_security.o(.TRACE)
    format                                   0x088084dc   Data          54  mesh_security.o(.TRACE)
    __tagsym$$used                           0x08808514   Number         0  mesh_security.o(.TRACE)
    format                                   0x08808514   Data          18  mesh_security.o(.TRACE)
    __tagsym$$used                           0x08808528   Number         0  mesh_security.o(.TRACE)
    format                                   0x08808528   Data          38  mesh_security.o(.TRACE)
    __tagsym$$used                           0x08808550   Number         0  mesh_security.o(.TRACE)
    format                                   0x08808550   Data          18  mesh_security.o(.TRACE)
    __tagsym$$used                           0x08808564   Number         0  mesh_security.o(.TRACE)
    format                                   0x08808564   Data          43  mesh_security.o(.TRACE)
    __tagsym$$used                           0x08808590   Number         0  mesh_security.o(.TRACE)
    format                                   0x08808590   Data          18  mesh_security.o(.TRACE)
    __tagsym$$used                           0x088085a4   Number         0  mesh_security.o(.TRACE)
    format                                   0x088085a4   Data          47  mesh_security.o(.TRACE)
    __tagsym$$used                           0x088085d4   Number         0  mesh_security.o(.TRACE)
    format                                   0x088085d4   Data          18  mesh_security.o(.TRACE)
    .TRACE                                   0x088085e8   Section      213  mesh_rpl.o(.TRACE)
    __tagsym$$used                           0x088085e8   Number         0  mesh_rpl.o(.TRACE)
    format                                   0x088085e8   Data          60  mesh_rpl.o(.TRACE)
    __tagsym$$used                           0x08808624   Number         0  mesh_rpl.o(.TRACE)
    format                                   0x08808624   Data          87  mesh_rpl.o(.TRACE)
    __tagsym$$used                           0x0880867c   Number         0  mesh_rpl.o(.TRACE)
    format                                   0x0880867c   Data          65  mesh_rpl.o(.TRACE)
    .TRACE                                   0x088086c0   Section     2148  provision_adv.o(.TRACE)
    __tagsym$$used                           0x088086c0   Number         0  provision_adv.o(.TRACE)
    format                                   0x088086c0   Data          38  provision_adv.o(.TRACE)
    __tagsym$$used                           0x088086e8   Number         0  provision_adv.o(.TRACE)
    format                                   0x088086e8   Data          36  provision_adv.o(.TRACE)
    __tagsym$$used                           0x0880870c   Number         0  provision_adv.o(.TRACE)
    format                                   0x0880870c   Data          51  provision_adv.o(.TRACE)
    __tagsym$$used                           0x08808740   Number         0  provision_adv.o(.TRACE)
    format                                   0x08808740   Data          68  provision_adv.o(.TRACE)
    __tagsym$$used                           0x08808784   Number         0  provision_adv.o(.TRACE)
    format                                   0x08808784   Data          43  provision_adv.o(.TRACE)
    __tagsym$$used                           0x088087b0   Number         0  provision_adv.o(.TRACE)
    format                                   0x088087b0   Data          44  provision_adv.o(.TRACE)
    __tagsym$$used                           0x088087dc   Number         0  provision_adv.o(.TRACE)
    format                                   0x088087dc   Data          56  provision_adv.o(.TRACE)
    __tagsym$$used                           0x08808814   Number         0  provision_adv.o(.TRACE)
    format                                   0x08808814   Data          62  provision_adv.o(.TRACE)
    __tagsym$$used                           0x08808854   Number         0  provision_adv.o(.TRACE)
    format                                   0x08808854   Data          40  provision_adv.o(.TRACE)
    __tagsym$$used                           0x0880887c   Number         0  provision_adv.o(.TRACE)
    format                                   0x0880887c   Data          61  provision_adv.o(.TRACE)
    __tagsym$$used                           0x088088bc   Number         0  provision_adv.o(.TRACE)
    format                                   0x088088bc   Data          42  provision_adv.o(.TRACE)
    __tagsym$$used                           0x088088e8   Number         0  provision_adv.o(.TRACE)
    format                                   0x088088e8   Data          51  provision_adv.o(.TRACE)
    __tagsym$$used                           0x0880891c   Number         0  provision_adv.o(.TRACE)
    format                                   0x0880891c   Data          71  provision_adv.o(.TRACE)
    __tagsym$$used                           0x08808964   Number         0  provision_adv.o(.TRACE)
    format                                   0x08808964   Data          70  provision_adv.o(.TRACE)
    __tagsym$$used                           0x088089ac   Number         0  provision_adv.o(.TRACE)
    format                                   0x088089ac   Data          53  provision_adv.o(.TRACE)
    __tagsym$$used                           0x088089e4   Number         0  provision_adv.o(.TRACE)
    format                                   0x088089e4   Data          55  provision_adv.o(.TRACE)
    __tagsym$$used                           0x08808a1c   Number         0  provision_adv.o(.TRACE)
    format                                   0x08808a1c   Data          78  provision_adv.o(.TRACE)
    __tagsym$$used                           0x08808a6c   Number         0  provision_adv.o(.TRACE)
    format                                   0x08808a6c   Data          81  provision_adv.o(.TRACE)
    __tagsym$$used                           0x08808ac0   Number         0  provision_adv.o(.TRACE)
    format                                   0x08808ac0   Data          67  provision_adv.o(.TRACE)
    __tagsym$$used                           0x08808b04   Number         0  provision_adv.o(.TRACE)
    format                                   0x08808b04   Data          78  provision_adv.o(.TRACE)
    __tagsym$$used                           0x08808b54   Number         0  provision_adv.o(.TRACE)
    format                                   0x08808b54   Data          72  provision_adv.o(.TRACE)
    __tagsym$$used                           0x08808b9c   Number         0  provision_adv.o(.TRACE)
    format                                   0x08808b9c   Data          78  provision_adv.o(.TRACE)
    __tagsym$$used                           0x08808bec   Number         0  provision_adv.o(.TRACE)
    format                                   0x08808bec   Data          96  provision_adv.o(.TRACE)
    __tagsym$$used                           0x08808c4c   Number         0  provision_adv.o(.TRACE)
    format                                   0x08808c4c   Data          73  provision_adv.o(.TRACE)
    __tagsym$$used                           0x08808c98   Number         0  provision_adv.o(.TRACE)
    format                                   0x08808c98   Data          80  provision_adv.o(.TRACE)
    __tagsym$$used                           0x08808ce8   Number         0  provision_adv.o(.TRACE)
    format                                   0x08808ce8   Data          44  provision_adv.o(.TRACE)
    __tagsym$$used                           0x08808d14   Number         0  provision_adv.o(.TRACE)
    format                                   0x08808d14   Data          53  provision_adv.o(.TRACE)
    __tagsym$$used                           0x08808d4c   Number         0  provision_adv.o(.TRACE)
    format                                   0x08808d4c   Data          53  provision_adv.o(.TRACE)
    __tagsym$$used                           0x08808d84   Number         0  provision_adv.o(.TRACE)
    format                                   0x08808d84   Data          50  provision_adv.o(.TRACE)
    __tagsym$$used                           0x08808db8   Number         0  provision_adv.o(.TRACE)
    format                                   0x08808db8   Data          47  provision_adv.o(.TRACE)
    __tagsym$$used                           0x08808de8   Number         0  provision_adv.o(.TRACE)
    format                                   0x08808de8   Data          46  provision_adv.o(.TRACE)
    __tagsym$$used                           0x08808e18   Number         0  provision_adv.o(.TRACE)
    format                                   0x08808e18   Data          42  provision_adv.o(.TRACE)
    __tagsym$$used                           0x08808e44   Number         0  provision_adv.o(.TRACE)
    format                                   0x08808e44   Data          58  provision_adv.o(.TRACE)
    __tagsym$$used                           0x08808e80   Number         0  provision_adv.o(.TRACE)
    format                                   0x08808e80   Data          56  provision_adv.o(.TRACE)
    __tagsym$$used                           0x08808eb8   Number         0  provision_adv.o(.TRACE)
    format                                   0x08808eb8   Data          51  provision_adv.o(.TRACE)
    __tagsym$$used                           0x08808eec   Number         0  provision_adv.o(.TRACE)
    format                                   0x08808eec   Data          56  provision_adv.o(.TRACE)
    .TRACE                                   0x08808f24   Section      989  proxy_protocol.o(.TRACE)
    __tagsym$$used                           0x08808f24   Number         0  proxy_protocol.o(.TRACE)
    format                                   0x08808f24   Data          46  proxy_protocol.o(.TRACE)
    __tagsym$$used                           0x08808f54   Number         0  proxy_protocol.o(.TRACE)
    format                                   0x08808f54   Data          60  proxy_protocol.o(.TRACE)
    __tagsym$$used                           0x08808f90   Number         0  proxy_protocol.o(.TRACE)
    format                                   0x08808f90   Data          60  proxy_protocol.o(.TRACE)
    __tagsym$$used                           0x08808fcc   Number         0  proxy_protocol.o(.TRACE)
    format                                   0x08808fcc   Data          84  proxy_protocol.o(.TRACE)
    __tagsym$$used                           0x08809020   Number         0  proxy_protocol.o(.TRACE)
    format                                   0x08809020   Data          15  proxy_protocol.o(.TRACE)
    __tagsym$$used                           0x08809030   Number         0  proxy_protocol.o(.TRACE)
    format                                   0x08809030   Data          83  proxy_protocol.o(.TRACE)
    __tagsym$$used                           0x08809084   Number         0  proxy_protocol.o(.TRACE)
    format                                   0x08809084   Data          72  proxy_protocol.o(.TRACE)
    __tagsym$$used                           0x088090cc   Number         0  proxy_protocol.o(.TRACE)
    format                                   0x088090cc   Data          15  proxy_protocol.o(.TRACE)
    __tagsym$$used                           0x088090dc   Number         0  proxy_protocol.o(.TRACE)
    format                                   0x088090dc   Data         114  proxy_protocol.o(.TRACE)
    __tagsym$$used                           0x08809150   Number         0  proxy_protocol.o(.TRACE)
    format                                   0x08809150   Data          88  proxy_protocol.o(.TRACE)
    __tagsym$$used                           0x088091a8   Number         0  proxy_protocol.o(.TRACE)
    format                                   0x088091a8   Data          73  proxy_protocol.o(.TRACE)
    __tagsym$$used                           0x088091f4   Number         0  proxy_protocol.o(.TRACE)
    format                                   0x088091f4   Data          85  proxy_protocol.o(.TRACE)
    __tagsym$$used                           0x0880924c   Number         0  proxy_protocol.o(.TRACE)
    format                                   0x0880924c   Data          66  proxy_protocol.o(.TRACE)
    __tagsym$$used                           0x08809290   Number         0  proxy_protocol.o(.TRACE)
    format                                   0x08809290   Data          76  proxy_protocol.o(.TRACE)
    __tagsym$$used                           0x088092dc   Number         0  proxy_protocol.o(.TRACE)
    format                                   0x088092dc   Data          37  proxy_protocol.o(.TRACE)
    .TRACE                                   0x08809304   Section     1102  friendship_lpn.o(.TRACE)
    __tagsym$$used                           0x08809304   Number         0  friendship_lpn.o(.TRACE)
    format                                   0x08809304   Data          49  friendship_lpn.o(.TRACE)
    __tagsym$$used                           0x08809338   Number         0  friendship_lpn.o(.TRACE)
    format                                   0x08809338   Data          38  friendship_lpn.o(.TRACE)
    __tagsym$$used                           0x08809360   Number         0  friendship_lpn.o(.TRACE)
    format                                   0x08809360   Data          32  friendship_lpn.o(.TRACE)
    __tagsym$$used                           0x08809380   Number         0  friendship_lpn.o(.TRACE)
    format                                   0x08809380   Data          31  friendship_lpn.o(.TRACE)
    __tagsym$$used                           0x088093a0   Number         0  friendship_lpn.o(.TRACE)
    format                                   0x088093a0   Data          49  friendship_lpn.o(.TRACE)
    __tagsym$$used                           0x088093d4   Number         0  friendship_lpn.o(.TRACE)
    format                                   0x088093d4   Data          54  friendship_lpn.o(.TRACE)
    __tagsym$$used                           0x0880940c   Number         0  friendship_lpn.o(.TRACE)
    format                                   0x0880940c   Data         122  friendship_lpn.o(.TRACE)
    __tagsym$$used                           0x08809488   Number         0  friendship_lpn.o(.TRACE)
    format                                   0x08809488   Data          63  friendship_lpn.o(.TRACE)
    __tagsym$$used                           0x088094c8   Number         0  friendship_lpn.o(.TRACE)
    format                                   0x088094c8   Data          47  friendship_lpn.o(.TRACE)
    __tagsym$$used                           0x088094f8   Number         0  friendship_lpn.o(.TRACE)
    format                                   0x088094f8   Data          48  friendship_lpn.o(.TRACE)
    __tagsym$$used                           0x08809528   Number         0  friendship_lpn.o(.TRACE)
    format                                   0x08809528   Data          91  friendship_lpn.o(.TRACE)
    __tagsym$$used                           0x08809584   Number         0  friendship_lpn.o(.TRACE)
    format                                   0x08809584   Data          46  friendship_lpn.o(.TRACE)
    __tagsym$$used                           0x088095b4   Number         0  friendship_lpn.o(.TRACE)
    format                                   0x088095b4   Data          65  friendship_lpn.o(.TRACE)
    __tagsym$$used                           0x088095f8   Number         0  friendship_lpn.o(.TRACE)
    format                                   0x088095f8   Data          77  friendship_lpn.o(.TRACE)
    __tagsym$$used                           0x08809648   Number         0  friendship_lpn.o(.TRACE)
    format                                   0x08809648   Data          47  friendship_lpn.o(.TRACE)
    __tagsym$$used                           0x08809678   Number         0  friendship_lpn.o(.TRACE)
    format                                   0x08809678   Data          47  friendship_lpn.o(.TRACE)
    __tagsym$$used                           0x088096a8   Number         0  friendship_lpn.o(.TRACE)
    format                                   0x088096a8   Data          58  friendship_lpn.o(.TRACE)
    __tagsym$$used                           0x088096e4   Number         0  friendship_lpn.o(.TRACE)
    format                                   0x088096e4   Data          61  friendship_lpn.o(.TRACE)
    __tagsym$$used                           0x08809724   Number         0  friendship_lpn.o(.TRACE)
    format                                   0x08809724   Data          46  friendship_lpn.o(.TRACE)
    .TRACE                                   0x08809754   Section      347  heartbeat.o(.TRACE)
    __tagsym$$used                           0x08809754   Number         0  heartbeat.o(.TRACE)
    format                                   0x08809754   Data          50  heartbeat.o(.TRACE)
    __tagsym$$used                           0x08809788   Number         0  heartbeat.o(.TRACE)
    format                                   0x08809788   Data          62  heartbeat.o(.TRACE)
    __tagsym$$used                           0x088097c8   Number         0  heartbeat.o(.TRACE)
    format                                   0x088097c8   Data          49  heartbeat.o(.TRACE)
    __tagsym$$used                           0x088097fc   Number         0  heartbeat.o(.TRACE)
    format                                   0x088097fc   Data          37  heartbeat.o(.TRACE)
    __tagsym$$used                           0x08809824   Number         0  heartbeat.o(.TRACE)
    format                                   0x08809824   Data          44  heartbeat.o(.TRACE)
    __tagsym$$used                           0x08809850   Number         0  heartbeat.o(.TRACE)
    format                                   0x08809850   Data          52  heartbeat.o(.TRACE)
    __tagsym$$used                           0x08809884   Number         0  heartbeat.o(.TRACE)
    format                                   0x08809884   Data          43  heartbeat.o(.TRACE)
    .TRACE                                   0x088098b0   Section       56  configuration_server.o(.TRACE)
    __tagsym$$used                           0x088098b0   Number         0  configuration_server.o(.TRACE)
    format                                   0x088098b0   Data          56  configuration_server.o(.TRACE)
    .TRACE                                   0x088098e8   Section      153  transport_ping.o(.TRACE)
    __tagsym$$used                           0x088098e8   Number         0  transport_ping.o(.TRACE)
    format                                   0x088098e8   Data          74  transport_ping.o(.TRACE)
    __tagsym$$used                           0x08809934   Number         0  transport_ping.o(.TRACE)
    format                                   0x08809934   Data          77  transport_ping.o(.TRACE)

    Global Symbols

    Symbol Name                              Value     Ov Type        Size  Object(Section)

    BuildAttributes$$THM_ISAv4$E$P$D$K$B$S$7EM$VFPi3$EXTD16$VFPS$VFMA$PE$A:L22UL41UL21$X:L11$S22US41US21$IEEE1$IW$USESV6$~STKCKD$USESV7$~SHL$OTIME$ROPI$IEEEJ$EBA8$UX$STANDARDLIB$REQ8$PRES8$EABIv2 0x00000000   Number         0  anon$$obj.o ABSOLUTE
    Image$$CACHE_DATA_ON$$RO$$Length         0x00000000   Number         0  anon$$obj.o ABSOLUTE
    Image$$CACHE_DATA_ON$$RW$$Length         0x00000000   Number         0  anon$$obj.o ABSOLUTE
    Image$$CACHE_DATA_ON$$ZI$$Length         0x00000000   Number         0  anon$$obj.o ABSOLUTE
    Image$$OVERLAY_A$$RW$$Length             0x00000000   Number         0  anon$$obj.o ABSOLUTE
    Image$$OVERLAY_A$$ZI$$Length             0x00000000   Number         0  anon$$obj.o ABSOLUTE
    Image$$OVERLAY_B$$RO$$Length             0x00000000   Number         0  anon$$obj.o ABSOLUTE
    Image$$OVERLAY_B$$RW$$Length             0x00000000   Number         0  anon$$obj.o ABSOLUTE
    Image$$OVERLAY_B$$ZI$$Length             0x00000000   Number         0  anon$$obj.o ABSOLUTE
    Image$$OVERLAY_C$$RO$$Length             0x00000000   Number         0  anon$$obj.o ABSOLUTE
    Image$$OVERLAY_C$$RW$$Length             0x00000000   Number         0  anon$$obj.o ABSOLUTE
    Image$$OVERLAY_C$$ZI$$Length             0x00000000   Number         0  anon$$obj.o ABSOLUTE
    __ARM_use_no_argv                        0x00000000   Number         0  main.o ABSOLUTE
    _printf_flags                            0x00000000   Number         0  printf_stubs.o ABSOLUTE
    _printf_return_value                     0x00000000   Number         0  printf_stubs.o ABSOLUTE
    _printf_sizespec                         0x00000000   Number         0  printf_stubs.o ABSOLUTE
    _printf_widthprec                        0x00000000   Number         0  printf_stubs.o ABSOLUTE
    __ARM_exceptions_init                     - Undefined Weak Reference
    __alloca_initialize                       - Undefined Weak Reference
    __arm_preinit_                            - Undefined Weak Reference
    __cpp_initialize__aeabi_                  - Undefined Weak Reference
    __rt_locale                               - Undefined Weak Reference
    __scatterload                             - Undefined Weak Reference
    __sigvec_lookup                           - Undefined Weak Reference
    _atexit_init                              - Undefined Weak Reference
    _clock_init                               - Undefined Weak Reference
    _fp_trap_init                             - Undefined Weak Reference
    _get_lc_collate                           - Undefined Weak Reference
    _get_lc_ctype                             - Undefined Weak Reference
    _get_lc_monetary                          - Undefined Weak Reference
    _get_lc_numeric                           - Undefined Weak Reference
    _get_lc_time                              - Undefined Weak Reference
    _getenv_init                              - Undefined Weak Reference
    _handle_redirection                       - Undefined Weak Reference
    _init_alloc                               - Undefined Weak Reference
    _init_user_alloc                          - Undefined Weak Reference
    _initio                                   - Undefined Weak Reference
    _printf_truncate_unsigned                 - Undefined Weak Reference
    _signal_init                              - Undefined Weak Reference
    Image$$OVERLAY_A$$RO$$Length             0x000000d4   Number         0  anon$$obj.o ABSOLUTE
    Image$$RAM_VECTOR_TABLE$$RO$$Length      0x000000f4   Number         0  anon$$obj.o ABSOLUTE
    __Vectors_Size                           0x000000f4   Number         0  startup_rtl8762c.o ABSOLUTE
    Image$$RAM_DATA_ON$$RW$$Length           0x00000160   Number         0  anon$$obj.o ABSOLUTE
    Image$$RAM_DATA_ON$$RO$$Length           0x00000428   Number         0  anon$$obj.o ABSOLUTE
    Image$$RAM_DATA_ON$$ZI$$Length           0x00000b9c   Number         0  anon$$obj.o ABSOLUTE
    get_active_ota_bank_addr                 0x000011cd   Thumb Code     0  ROM.lib ABSOLUTE
    SHA256_Init                              0x00001a17   Thumb Code     0  ROM.lib ABSOLUTE
    SHA256_Update                            0x00001a33   Thumb Code     0  ROM.lib ABSOLUTE
    SHA256_Final                             0x00001ab3   Thumb Code     0  ROM.lib ABSOLUTE
    SHA256_Alloc                             0x00001bf7   Thumb Code     0  ROM.lib ABSOLUTE
    SHA256_Free                              0x00001c37   Thumb Code     0  ROM.lib ABSOLUTE
    SHA256                                   0x00001c3b   Thumb Code     0  ROM.lib ABSOLUTE
    RamVectorTableInit                       0x00004ca9   Thumb Code     0  ROM.lib ABSOLUTE
    RamVectorTableUpdate                     0x00004ccb   Thumb Code     0  ROM.lib ABSOLUTE
    SystemCall                               0x000072a1   Thumb Code     0  ROM.lib ABSOLUTE
    btxfcs                                   0x000073d5   Thumb Code     0  ROM.lib ABSOLUTE
    platform_random                          0x000077b3   Thumb Code     0  ROM.lib ABSOLUTE
    platform_ramdom_seed_update              0x000077c7   Thumb Code     0  ROM.lib ABSOLUTE
    LogUartTxChar                            0x00007935   Thumb Code     0  ROM.lib ABSOLUTE
    log_timestamp_get                        0x00007975   Thumb Code     0  ROM.lib ABSOLUTE
    log_direct                               0x000079b1   Thumb Code     0  ROM.lib ABSOLUTE
    log_buffer                               0x00007a5f   Thumb Code     0  ROM.lib ABSOLUTE
    log_index                                0x00007b97   Thumb Code     0  ROM.lib ABSOLUTE
    log_snoop                                0x00007c93   Thumb Code     0  ROM.lib ABSOLUTE
    trace_bdaddr                             0x00007dd9   Thumb Code     0  ROM.lib ABSOLUTE
    trace_string                             0x00007e6b   Thumb Code     0  ROM.lib ABSOLUTE
    trace_binary                             0x00007f0b   Thumb Code     0  ROM.lib ABSOLUTE
    LogBufferLowerStack                      0x00007fa9   Thumb Code     0  ROM.lib ABSOLUTE
    LogBufferLowerStackData                  0x000080bb   Thumb Code     0  ROM.lib ABSOLUTE
    log_module_trace_init                    0x000081d5   Thumb Code     0  ROM.lib ABSOLUTE
    log_module_trace_set                     0x000081fd   Thumb Code     0  ROM.lib ABSOLUTE
    log_module_bitmap_trace_set              0x00008243   Thumb Code     0  ROM.lib ABSOLUTE
    dlps_check_cb_reg                        0x000085ff   Thumb Code     0  ROM.lib ABSOLUTE
    dlps_hw_control_cb_reg                   0x000086ef   Thumb Code     0  ROM.lib ABSOLUTE
    dlps_hw_control_cb_unreg                 0x00008729   Thumb Code     0  ROM.lib ABSOLUTE
    lps_mode_pause                           0x00008825   Thumb Code     0  ROM.lib ABSOLUTE
    lps_mode_resume                          0x00008841   Thumb Code     0  ROM.lib ABSOLUTE
    lps_mode_set                             0x0000885f   Thumb Code     0  ROM.lib ABSOLUTE
    lps_mode_get                             0x0000886f   Thumb Code     0  ROM.lib ABSOLUTE
    lps_mode_stack_get                       0x00008875   Thumb Code     0  ROM.lib ABSOLUTE
    hw_aes_encrypt128                        0x00008abb   Thumb Code     0  ROM.lib ABSOLUTE
    hw_aes_decrypt128                        0x00008adf   Thumb Code     0  ROM.lib ABSOLUTE
    hw_aes_encrypt256                        0x00008aff   Thumb Code     0  ROM.lib ABSOLUTE
    hw_aes_decrypt256                        0x00008b23   Thumb Code     0  ROM.lib ABSOLUTE
    hw_aes_encrypt128_use_dma                0x00008b47   Thumb Code     0  ROM.lib ABSOLUTE
    hw_aes_decrypt128_use_dma                0x00008b77   Thumb Code     0  ROM.lib ABSOLUTE
    hw_aes_encrypt256_use_dma                0x00008ba7   Thumb Code     0  ROM.lib ABSOLUTE
    hw_aes_decrypt256_use_dma                0x00008bd7   Thumb Code     0  ROM.lib ABSOLUTE
    aes128_ecb_encrypt                       0x00008c07   Thumb Code     0  ROM.lib ABSOLUTE
    aes128_ecb_decrypt                       0x00008c63   Thumb Code     0  ROM.lib ABSOLUTE
    aes128_ecb_encrypt_msb2lsb               0x00008cbd   Thumb Code     0  ROM.lib ABSOLUTE
    aes128_ecb_decrypt_msb2lsb               0x00008cd5   Thumb Code     0  ROM.lib ABSOLUTE
    aes256_ecb_encrypt                       0x00008ced   Thumb Code     0  ROM.lib ABSOLUTE
    aes256_ecb_decrypt                       0x00008d49   Thumb Code     0  ROM.lib ABSOLUTE
    aes256_ecb_encrypt_msb2lsb               0x00008da3   Thumb Code     0  ROM.lib ABSOLUTE
    aes256_ecb_decrypt_msb2lsb               0x00008dbb   Thumb Code     0  ROM.lib ABSOLUTE
    hw_aes_decrypt_code_init_slim            0x00008de5   Thumb Code     0  ROM.lib ABSOLUTE
    hw_aes_decrypt_16byte                    0x00008e11   Thumb Code     0  ROM.lib ABSOLUTE
    BTIF_VendorGetResponse                   0x00008f65   Thumb Code     0  ROM.lib ABSOLUTE
    spic_wait_busy                           0x00009051   Thumb Code     0  ROM.lib ABSOLUTE
    flash_cmd_rx                             0x0000929d   Thumb Code     0  ROM.lib ABSOLUTE
    flash_wait_busy                          0x0000932f   Thumb Code     0  ROM.lib ABSOLUTE
    flash_cmd_tx                             0x00009369   Thumb Code     0  ROM.lib ABSOLUTE
    flash_write_enable                       0x00009421   Thumb Code     0  ROM.lib ABSOLUTE
    flash_get_status_regs                    0x0000956f   Thumb Code     0  ROM.lib ABSOLUTE
    flash_set_status_regs                    0x000095e5   Thumb Code     0  ROM.lib ABSOLUTE
    flash_get_rdid                           0x00009905   Thumb Code     0  ROM.lib ABSOLUTE
    flash_load_query_info                    0x00009d4b   Thumb Code     0  ROM.lib ABSOLUTE
    flash_lock                               0x0000a103   Thumb Code     0  ROM.lib ABSOLUTE
    flash_unlock                             0x0000a1ab   Thumb Code     0  ROM.lib ABSOLUTE
    flash_set_bit                            0x0000a237   Thumb Code     0  ROM.lib ABSOLUTE
    flash_get_bit                            0x0000a23f   Thumb Code     0  ROM.lib ABSOLUTE
    flash_write_internal                     0x0000a24b   Thumb Code     0  ROM.lib ABSOLUTE
    flash_read                               0x0000a359   Thumb Code     0  ROM.lib ABSOLUTE
    flash_split_read                         0x0000a39d   Thumb Code     0  ROM.lib ABSOLUTE
    flash_auto_write                         0x0000a4cd   Thumb Code     0  ROM.lib ABSOLUTE
    flash_get_block_protect                  0x0000a53b   Thumb Code     0  ROM.lib ABSOLUTE
    flash_set_block_protect                  0x0000a58f   Thumb Code     0  ROM.lib ABSOLUTE
    flash_sw_protect_unlock_by_addr          0x0000a637   Thumb Code     0  ROM.lib ABSOLUTE
    flash_set_top_bottom                     0x0000a803   Thumb Code     0  ROM.lib ABSOLUTE
    flash_get_query_info                     0x0000a9a9   Thumb Code     0  ROM.lib ABSOLUTE
    spic_get_dr                              0x0000aad1   Thumb Code     0  ROM.lib ABSOLUTE
    spic_set_dummy_len                       0x0000aaeb   Thumb Code     0  ROM.lib ABSOLUTE
    flash_read_internal                      0x0000ab45   Thumb Code     0  ROM.lib ABSOLUTE
    ftl_ioctl                                0x0000b3a7   Thumb Code     0  ROM.lib ABSOLUTE
    ftl_load                                 0x0000b907   Thumb Code     0  ROM.lib ABSOLUTE
    ftl_save                                 0x0000b919   Thumb Code     0  ROM.lib ABSOLUTE
    flash_dump_flash_info                    0x0000beb9   Thumb Code     0  ROM.lib ABSOLUTE
    crc16                                    0x0000bf13   Thumb Code     0  ROM.lib ABSOLUTE
    flash_get_flash_exist                    0x0000bf3b   Thumb Code     0  ROM.lib ABSOLUTE
    flash_get_bank_addr                      0x0000bf41   Thumb Code     0  ROM.lib ABSOLUTE
    flash_get_bank_size                      0x0000bfb9   Thumb Code     0  ROM.lib ABSOLUTE
    flash_erase_locked                       0x0000c027   Thumb Code     0  ROM.lib ABSOLUTE
    flash_ioctl                              0x0000c073   Thumb Code     0  ROM.lib ABSOLUTE
    flash_write_locked                       0x0000c48b   Thumb Code     0  ROM.lib ABSOLUTE
    flash_auto_write_locked                  0x0000c4b3   Thumb Code     0  ROM.lib ABSOLUTE
    flash_auto_write_buffer_locked           0x0000c4d5   Thumb Code     0  ROM.lib ABSOLUTE
    flash_read_locked                        0x0000c4fb   Thumb Code     0  ROM.lib ABSOLUTE
    flash_auto_read_locked                   0x0000c523   Thumb Code     0  ROM.lib ABSOLUTE
    flash_ds_erase                           0x0000c5c7   Thumb Code     0  ROM.lib ABSOLUTE
    flash_ds_auto_write                      0x0000c5e3   Thumb Code     0  ROM.lib ABSOLUTE
    flash_ds_auto_read                       0x0000c5fd   Thumb Code     0  ROM.lib ABSOLUTE
    flash_ds_write                           0x0000c617   Thumb Code     0  ROM.lib ABSOLUTE
    flash_ds_read                            0x0000c635   Thumb Code     0  ROM.lib ABSOLUTE
    set_hci_mode_flag                        0x0000c741   Thumb Code     0  ROM.lib ABSOLUTE
    check_hci_mode_flag                      0x0000c761   Thumb Code     0  ROM.lib ABSOLUTE
    set_datatrans_patch_flag                 0x0000c76d   Thumb Code     0  ROM.lib ABSOLUTE
    check_datatrans_patch_flag               0x0000c78d   Thumb Code     0  ROM.lib ABSOLUTE
    check_image_chksum                       0x0000c79d   Thumb Code     0  ROM.lib ABSOLUTE
    check_header_valid                       0x0000c7a9   Thumb Code     0  ROM.lib ABSOLUTE
    get_header_addr_by_img_id                0x0000c7e5   Thumb Code     0  ROM.lib ABSOLUTE
    is_ota_support_bank_switch               0x0000c843   Thumb Code     0  ROM.lib ABSOLUTE
    get_temp_ota_bank_addr_by_img_id         0x0000c881   Thumb Code     0  ROM.lib ABSOLUTE
    vListInitialise                          0x0000c941   Thumb Code     0  ROM.lib ABSOLUTE
    vListInitialiseItem                      0x0000c957   Thumb Code     0  ROM.lib ABSOLUTE
    vListInsertEnd                           0x0000c95d   Thumb Code     0  ROM.lib ABSOLUTE
    vListInsert                              0x0000c975   Thumb Code     0  ROM.lib ABSOLUTE
    uxListRemove                             0x0000c9a5   Thumb Code     0  ROM.lib ABSOLUTE
    xQueueGenericSend                        0x0000cb85   Thumb Code     0  ROM.lib ABSOLUTE
    xQueueGenericSendFromISR                 0x0000cf87   Thumb Code     0  ROM.lib ABSOLUTE
    xTaskGenericNotify                       0x0000e42d   Thumb Code     0  ROM.lib ABSOLUTE
    xTaskGenericNotifyFromISR                0x0000e4e3   Thumb Code     0  ROM.lib ABSOLUTE
    rtlEnterCritical                         0x0000f421   Thumb Code     0  ROM.lib ABSOLUTE
    rtlExitCritical                          0x0000f451   Thumb Code     0  ROM.lib ABSOLUTE
    pvPortMalloc                             0x0000f70b   Thumb Code     0  ROM.lib ABSOLUTE
    vPortFree                                0x0000f817   Thumb Code     0  ROM.lib ABSOLUTE
    hw_aes_init                              0x00010c21   Thumb Code     0  ROM.lib ABSOLUTE
    hw_aes_cpu_operate                       0x00010d91   Thumb Code     0  ROM.lib ABSOLUTE
    hw_aes_set_dma_tx_done                   0x00010d9d   Thumb Code     0  ROM.lib ABSOLUTE
    hw_aes_set_dma_rx_done                   0x00010da3   Thumb Code     0  ROM.lib ABSOLUTE
    hw_aes_dma_operate                       0x00010da9   Thumb Code     0  ROM.lib ABSOLUTE
    hw_aes_is_dma_rx_done                    0x00011005   Thumb Code     0  ROM.lib ABSOLUTE
    hw_aes_is_dma_tx_done                    0x0001100b   Thumb Code     0  ROM.lib ABSOLUTE
    hw_aes_dma_done                          0x00011011   Thumb Code     0  ROM.lib ABSOLUTE
    hw_aes_set_dma_move_src                  0x0001101b   Thumb Code     0  ROM.lib ABSOLUTE
    hw_aes_set_dma_move_dst                  0x00011021   Thumb Code     0  ROM.lib ABSOLUTE
    hw_aes_set_dma_carry_size                0x00011027   Thumb Code     0  ROM.lib ABSOLUTE
    aes_cmac_inverse                         0x0001119b   Thumb Code     0  ROM.lib ABSOLUTE
    get_secure_reg_cfg_val                   0x00011269   Thumb Code     0  ROM.lib ABSOLUTE
    NVIC_Init                                0x000112c1   Thumb Code     0  ROM.lib ABSOLUTE
    Pinmux_Config                            0x00011375   Thumb Code     0  ROM.lib ABSOLUTE
    Pinmux_Deinit                            0x000113a9   Thumb Code     0  ROM.lib ABSOLUTE
    Pinmux_Reset                             0x000113c5   Thumb Code     0  ROM.lib ABSOLUTE
    Pad_Config                               0x000113dd   Thumb Code     0  ROM.lib ABSOLUTE
    System_WakeUpDebounceTime                0x0001146b   Thumb Code     0  ROM.lib ABSOLUTE
    Pad_WKDebounceConfig                     0x0001148d   Thumb Code     0  ROM.lib ABSOLUTE
    Pad_WakeupEnableValue                    0x000114b3   Thumb Code     0  ROM.lib ABSOLUTE
    Pad_WakeupPolarityValue                  0x000114d9   Thumb Code     0  ROM.lib ABSOLUTE
    System_WakeUpPinEnable                   0x000114ff   Thumb Code     0  ROM.lib ABSOLUTE
    System_WakeUpPinDisable                  0x00011531   Thumb Code     0  ROM.lib ABSOLUTE
    Pad_WakeupInterruptValue                 0x0001154f   Thumb Code     0  ROM.lib ABSOLUTE
    System_WakeUpInterruptValue              0x00011577   Thumb Code     0  ROM.lib ABSOLUTE
    Pad_ClearAllWakeupINT                    0x00011597   Thumb Code     0  ROM.lib ABSOLUTE
    Pad_OutputEnableValue                    0x000115f5   Thumb Code     0  ROM.lib ABSOLUTE
    Pad_OutputControlValue                   0x0001161b   Thumb Code     0  ROM.lib ABSOLUTE
    Pad_PullEnableValue                      0x00011641   Thumb Code     0  ROM.lib ABSOLUTE
    Pad_PullUpOrDownValue                    0x00011667   Thumb Code     0  ROM.lib ABSOLUTE
    Pad_ControlSelectValue                   0x0001168d   Thumb Code     0  ROM.lib ABSOLUTE
    Pad_ClearWakeupINTPendingBit             0x000116b3   Thumb Code     0  ROM.lib ABSOLUTE
    Pad_PowerOrShutDownValue                 0x000116cb   Thumb Code     0  ROM.lib ABSOLUTE
    Pad_PullConfigValue                      0x000116f1   Thumb Code     0  ROM.lib ABSOLUTE
    RTC_WriteReg                             0x00011759   Thumb Code     0  ROM.lib ABSOLUTE
    RTC_DeInit                               0x00011795   Thumb Code     0  ROM.lib ABSOLUTE
    RTC_SetPrescaler                         0x00011815   Thumb Code     0  ROM.lib ABSOLUTE
    RTC_SetComp                              0x0001181d   Thumb Code     0  ROM.lib ABSOLUTE
    RTC_RunCmd                               0x00011827   Thumb Code     0  ROM.lib ABSOLUTE
    RTC_MaskINTConfig                        0x00011843   Thumb Code     0  ROM.lib ABSOLUTE
    RTC_CompINTConfig                        0x0001185f   Thumb Code     0  ROM.lib ABSOLUTE
    RTC_TickINTConfig                        0x0001187b   Thumb Code     0  ROM.lib ABSOLUTE
    RTC_GetINTStatus                         0x00011897   Thumb Code     0  ROM.lib ABSOLUTE
    RTC_SystemWakeupConfig                   0x000118ab   Thumb Code     0  ROM.lib ABSOLUTE
    WDG_ClockEnable                          0x000118d9   Thumb Code     0  ROM.lib ABSOLUTE
    WDG_Config                               0x00011903   Thumb Code     0  ROM.lib ABSOLUTE
    WDG_Enable                               0x00011931   Thumb Code     0  ROM.lib ABSOLUTE
    WDG_Disable                              0x00011943   Thumb Code     0  ROM.lib ABSOLUTE
    WDG_Restart                              0x00011955   Thumb Code     0  ROM.lib ABSOLUTE
    AON_WDG_Config                           0x00011a79   Thumb Code     0  ROM.lib ABSOLUTE
    AON_WDG_ConfigResetLevel                 0x00011acb   Thumb Code     0  ROM.lib ABSOLUTE
    AON_WDG_ConfigComp                       0x00011b0f   Thumb Code     0  ROM.lib ABSOLUTE
    AON_WDG_ConfigCntCtl                     0x00011b53   Thumb Code     0  ROM.lib ABSOLUTE
    AON_WDG_ConfigCntReload                  0x00011b97   Thumb Code     0  ROM.lib ABSOLUTE
    AON_WDG_Enable                           0x00011bdb   Thumb Code     0  ROM.lib ABSOLUTE
    AON_WDG_Disable                          0x00011c21   Thumb Code     0  ROM.lib ABSOLUTE
    AON_WDG_Restart                          0x00011c67   Thumb Code     0  ROM.lib ABSOLUTE
    AON_WDG_SystemReset                      0x00011c7f   Thumb Code     0  ROM.lib ABSOLUTE
    SPI_DeInit                               0x00011c95   Thumb Code     0  ROM.lib ABSOLUTE
    SPI_Init                                 0x00011caf   Thumb Code     0  ROM.lib ABSOLUTE
    SPI_StructInit                           0x00011da3   Thumb Code     0  ROM.lib ABSOLUTE
    SPI_Cmd                                  0x00011def   Thumb Code     0  ROM.lib ABSOLUTE
    SPI_SendBuffer                           0x00011e03   Thumb Code     0  ROM.lib ABSOLUTE
    SPI_SendWord                             0x00011e1f   Thumb Code     0  ROM.lib ABSOLUTE
    SPI_SendHalfWord                         0x00011e39   Thumb Code     0  ROM.lib ABSOLUTE
    SPI_INTConfig                            0x00011e55   Thumb Code     0  ROM.lib ABSOLUTE
    SPI_ClearINTPendingBit                   0x00011e69   Thumb Code     0  ROM.lib ABSOLUTE
    hci_if_open                              0x00013cc9   Thumb Code     0  ROM.lib ABSOLUTE
    hci_if_close                             0x00013ccd   Thumb Code     0  ROM.lib ABSOLUTE
    hci_if_write                             0x00013cd1   Thumb Code     0  ROM.lib ABSOLUTE
    hci_if_confirm                           0x00013cff   Thumb Code     0  ROM.lib ABSOLUTE
    sm_le_sc_local_oob_init                  0x0001808d   Thumb Code     0  ROM.lib ABSOLUTE
    sm_le_sc_peer_oob_init                   0x000180a1   Thumb Code     0  ROM.lib ABSOLUTE
    btif_buffer_get                          0x0002148f   Thumb Code     0  ROM.lib ABSOLUTE
    btif_buffer_put                          0x000214a9   Thumb Code     0  ROM.lib ABSOLUTE
    btif_vendor_cmd_req                      0x000214ed   Thumb Code     0  ROM.lib ABSOLUTE
    btif_just_work_req_cfm                   0x0002165b   Thumb Code     0  ROM.lib ABSOLUTE
    btif_sw_reset_req                        0x000216e3   Thumb Code     0  ROM.lib ABSOLUTE
    btif_le_disconn_cfm                      0x00021811   Thumb Code     0  ROM.lib ABSOLUTE
    btif_le_credit_based_conn_req            0x00021e61   Thumb Code     0  ROM.lib ABSOLUTE
    btif_le_credit_based_conn_cfm            0x00021eaf   Thumb Code     0  ROM.lib ABSOLUTE
    btif_le_credit_based_disconn_req         0x00021f05   Thumb Code     0  ROM.lib ABSOLUTE
    btif_le_credit_based_disconn_cfm         0x00021f23   Thumb Code     0  ROM.lib ABSOLUTE
    btif_le_send_credit_req                  0x00021f41   Thumb Code     0  ROM.lib ABSOLUTE
    btif_le_credit_based_data_req            0x00021f63   Thumb Code     0  ROM.lib ABSOLUTE
    btif_le_credit_based_data_cfm            0x00021f9d   Thumb Code     0  ROM.lib ABSOLUTE
    btif_le_credit_based_security_reg_req    0x00021fbf   Thumb Code     0  ROM.lib ABSOLUTE
    btif_le_credit_based_psm_reg_req         0x00021fed   Thumb Code     0  ROM.lib ABSOLUTE
    btif_le_gen_rand_addr                    0x000220f3   Thumb Code     0  ROM.lib ABSOLUTE
    btif_le_set_adv_set_rand_addr_req        0x00022395   Thumb Code     0  ROM.lib ABSOLUTE
    btif_le_modify_adv_set_req               0x000223bf   Thumb Code     0  ROM.lib ABSOLUTE
    btif_le_ext_adv_enable_req               0x000223dd   Thumb Code     0  ROM.lib ABSOLUTE
    btif_le_ext_adv_param_set_req            0x00022417   Thumb Code     0  ROM.lib ABSOLUTE
    btif_le_ext_adv_data_set_req             0x0002248f   Thumb Code     0  ROM.lib ABSOLUTE
    btif_le_ext_scan_req                     0x00022503   Thumb Code     0  ROM.lib ABSOLUTE
    btif_le_ext_scan_param_set_req           0x00022529   Thumb Code     0  ROM.lib ABSOLUTE
    btif_le_set_suppl_test_params_req        0x0002257f   Thumb Code     0  ROM.lib ABSOLUTE
    btif_le_set_conn_suppl_params_req        0x000225ab   Thumb Code     0  ROM.lib ABSOLUTE
    btif_le_conn_suppl_request_enable_req    0x000225fb   Thumb Code     0  ROM.lib ABSOLUTE
    btif_le_conn_suppl_response_enable_req   0x00022627   Thumb Code     0  ROM.lib ABSOLUTE
    btif_le_read_antenna_info_req            0x00022645   Thumb Code     0  ROM.lib ABSOLUTE
    os_mem_alloc_intern                      0x00025d61   Thumb Code     0  ROM.lib ABSOLUTE
    os_mem_zalloc_intern                     0x00025db9   Thumb Code     0  ROM.lib ABSOLUTE
    os_mem_aligned_alloc_intern              0x00025e17   Thumb Code     0  ROM.lib ABSOLUTE
    os_mem_free                              0x00025e77   Thumb Code     0  ROM.lib ABSOLUTE
    os_mem_aligned_free                      0x00025e95   Thumb Code     0  ROM.lib ABSOLUTE
    os_mem_peek                              0x00025eb3   Thumb Code     0  ROM.lib ABSOLUTE
    os_msg_queue_create_intern               0x00025ef5   Thumb Code     0  ROM.lib ABSOLUTE
    os_msg_queue_delete_intern               0x00025f51   Thumb Code     0  ROM.lib ABSOLUTE
    os_msg_queue_peek_intern                 0x00025f95   Thumb Code     0  ROM.lib ABSOLUTE
    os_msg_send_intern                       0x00025fe5   Thumb Code     0  ROM.lib ABSOLUTE
    os_msg_recv_intern                       0x00026045   Thumb Code     0  ROM.lib ABSOLUTE
    os_msg_peek_intern                       0x000260a3   Thumb Code     0  ROM.lib ABSOLUTE
    os_pool_create_intern                    0x000261e7   Thumb Code     0  ROM.lib ABSOLUTE
    os_pool_extend_intern                    0x000262bb   Thumb Code     0  ROM.lib ABSOLUTE
    os_pool_delete_intern                    0x0002638b   Thumb Code     0  ROM.lib ABSOLUTE
    os_buffer_get_intern                     0x0002645d   Thumb Code     0  ROM.lib ABSOLUTE
    os_buffer_put_intern                     0x00026561   Thumb Code     0  ROM.lib ABSOLUTE
    os_pool_dump                             0x000265e1   Thumb Code     0  ROM.lib ABSOLUTE
    os_queue_init                            0x0002666d   Thumb Code     0  ROM.lib ABSOLUTE
    os_queue_in                              0x00026677   Thumb Code     0  ROM.lib ABSOLUTE
    os_queue_out                             0x000266a3   Thumb Code     0  ROM.lib ABSOLUTE
    os_queue_peek                            0x000266d1   Thumb Code     0  ROM.lib ABSOLUTE
    os_queue_insert                          0x000266d5   Thumb Code     0  ROM.lib ABSOLUTE
    os_queue_delete                          0x0002670f   Thumb Code     0  ROM.lib ABSOLUTE
    os_delay                                 0x00026771   Thumb Code     0  ROM.lib ABSOLUTE
    os_sys_time_get                          0x0002678f   Thumb Code     0  ROM.lib ABSOLUTE
    os_sys_tick_get                          0x000267a9   Thumb Code     0  ROM.lib ABSOLUTE
    os_sched_start                           0x000267c3   Thumb Code     0  ROM.lib ABSOLUTE
    os_sched_stop                            0x000267df   Thumb Code     0  ROM.lib ABSOLUTE
    os_sched_suspend                         0x000267fb   Thumb Code     0  ROM.lib ABSOLUTE
    os_sched_resume                          0x00026817   Thumb Code     0  ROM.lib ABSOLUTE
    os_lock                                  0x00026851   Thumb Code     0  ROM.lib ABSOLUTE
    os_unlock                                0x0002686b   Thumb Code     0  ROM.lib ABSOLUTE
    os_sem_create                            0x00026889   Thumb Code     0  ROM.lib ABSOLUTE
    os_sem_delete                            0x000268b3   Thumb Code     0  ROM.lib ABSOLUTE
    os_sem_take                              0x000268d5   Thumb Code     0  ROM.lib ABSOLUTE
    os_sem_give                              0x000268fb   Thumb Code     0  ROM.lib ABSOLUTE
    os_mutex_create                          0x0002691d   Thumb Code     0  ROM.lib ABSOLUTE
    os_mutex_delete                          0x0002693f   Thumb Code     0  ROM.lib ABSOLUTE
    os_mutex_take                            0x00026961   Thumb Code     0  ROM.lib ABSOLUTE
    os_mutex_give                            0x00026987   Thumb Code     0  ROM.lib ABSOLUTE
    os_task_create                           0x000269d1   Thumb Code     0  ROM.lib ABSOLUTE
    os_task_delete                           0x00026a17   Thumb Code     0  ROM.lib ABSOLUTE
    os_task_suspend                          0x00026a39   Thumb Code     0  ROM.lib ABSOLUTE
    os_task_resume                           0x00026a5b   Thumb Code     0  ROM.lib ABSOLUTE
    os_task_yield                            0x00026a7d   Thumb Code     0  ROM.lib ABSOLUTE
    os_task_handle_get                       0x00026a99   Thumb Code     0  ROM.lib ABSOLUTE
    os_task_priority_get                     0x00026abb   Thumb Code     0  ROM.lib ABSOLUTE
    os_task_priority_set                     0x00026ae1   Thumb Code     0  ROM.lib ABSOLUTE
    os_task_signal_send                      0x00026b07   Thumb Code     0  ROM.lib ABSOLUTE
    os_task_signal_recv                      0x00026b2d   Thumb Code     0  ROM.lib ABSOLUTE
    os_task_signal_clear                     0x00026b53   Thumb Code     0  ROM.lib ABSOLUTE
    os_timer_id_get                          0x00026ba1   Thumb Code     0  ROM.lib ABSOLUTE
    os_timer_create                          0x00026bd7   Thumb Code     0  ROM.lib ABSOLUTE
    os_timer_start                           0x00026c1d   Thumb Code     0  ROM.lib ABSOLUTE
    os_timer_restart                         0x00026c3f   Thumb Code     0  ROM.lib ABSOLUTE
    os_timer_stop                            0x00026c65   Thumb Code     0  ROM.lib ABSOLUTE
    os_timer_delete                          0x00026c87   Thumb Code     0  ROM.lib ABSOLUTE
    os_timer_dump                            0x00026ca9   Thumb Code     0  ROM.lib ABSOLUTE
    os_timer_state_get                       0x00026cc5   Thumb Code     0  ROM.lib ABSOLUTE
    rtk_write_modem_radio_reg                0x0002b11d   Thumb Code     0  ROM.lib ABSOLUTE
    rtk_read_modem_radio_reg                 0x0002b183   Thumb Code     0  ROM.lib ABSOLUTE
    hci_handle_le_receiver_test              0x0002d321   Thumb Code     0  ROM.lib ABSOLUTE
    btaon_fast_read                          0x0003eded   Thumb Code     0  ROM.lib ABSOLUTE
    btaon_fast_read_safe                     0x0003ee05   Thumb Code     0  ROM.lib ABSOLUTE
    btaon_fast_write                         0x0003ee25   Thumb Code     0  ROM.lib ABSOLUTE
    btaon_fast_write_safe                    0x0003ee47   Thumb Code     0  ROM.lib ABSOLUTE
    btaon_fast_update                        0x0003ee73   Thumb Code     0  ROM.lib ABSOLUTE
    dfu_report_target_ic_type                0x000474ab   Thumb Code     0  ROM.lib ABSOLUTE
    dfu_report_target_fw_info                0x000474f5   Thumb Code     0  ROM.lib ABSOLUTE
    dfu_flash_erase                          0x000475a5   Thumb Code     0  ROM.lib ABSOLUTE
    dfu_update                               0x000475eb   Thumb Code     0  ROM.lib ABSOLUTE
    dfu_reset                                0x000476f5   Thumb Code     0  ROM.lib ABSOLUTE
    dfu_fw_active_reset                      0x00047713   Thumb Code     0  ROM.lib ABSOLUTE
    dfu_checkbufcrc                          0x0004776b   Thumb Code     0  ROM.lib ABSOLUTE
    dfu_flash_check_blank                    0x000477cb   Thumb Code     0  ROM.lib ABSOLUTE
    dfu_check_checksum                       0x00047833   Thumb Code     0  ROM.lib ABSOLUTE
    dfu_init                                 0x00047a91   Thumb Code     0  ROM.lib ABSOLUTE
    dfu_switch_to_ota_mode                   0x00047ad7   Thumb Code     0  ROM.lib ABSOLUTE
    dfu_set_ota_mode_flag                    0x0004820d   Thumb Code     0  ROM.lib ABSOLUTE
    bt_crypto_f4                             0x00048ac9   Thumb Code     0  ROM.lib ABSOLUTE
    ecc_make_key                             0x00049969   Thumb Code     0  ROM.lib ABSOLUTE
    gap_register_extend_cb                   0x0004be11   Thumb Code     0  ROM.lib ABSOLUTE
    gap_start_bt_stack                       0x0004be6b   Thumb Code     0  ROM.lib ABSOLUTE
    gap_set_pairable_mode                    0x0004bedb   Thumb Code     0  ROM.lib ABSOLUTE
    gap_handle_msg                           0x0004bf45   Thumb Code     0  ROM.lib ABSOLUTE
    gap_register_app_cb                      0x0004bfa5   Thumb Code     0  ROM.lib ABSOLUTE
    gap_set_param                            0x0004bfab   Thumb Code     0  ROM.lib ABSOLUTE
    gap_get_param                            0x0004c037   Thumb Code     0  ROM.lib ABSOLUTE
    gap_write_airplan_mode                   0x0004c0a5   Thumb Code     0  ROM.lib ABSOLUTE
    gap_read_airplan_mode                    0x0004c0c7   Thumb Code     0  ROM.lib ABSOLUTE
    gap_buffer_free                          0x0004c0e5   Thumb Code     0  ROM.lib ABSOLUTE
    le_bond_clear_all_keys                   0x0004c151   Thumb Code     0  ROM.lib ABSOLUTE
    le_bond_delete_by_idx                    0x0004c16d   Thumb Code     0  ROM.lib ABSOLUTE
    le_bond_delete_by_bd                     0x0004c1a7   Thumb Code     0  ROM.lib ABSOLUTE
    le_bond_set_param                        0x0004c1ef   Thumb Code     0  ROM.lib ABSOLUTE
    le_bond_get_param                        0x0004c2e1   Thumb Code     0  ROM.lib ABSOLUTE
    le_bond_pair                             0x0004c353   Thumb Code     0  ROM.lib ABSOLUTE
    le_bond_passkey_input_confirm            0x0004c383   Thumb Code     0  ROM.lib ABSOLUTE
    le_bond_oob_input_confirm                0x0004c3b7   Thumb Code     0  ROM.lib ABSOLUTE
    le_bond_get_display_key                  0x0004c3eb   Thumb Code     0  ROM.lib ABSOLUTE
    le_bond_user_confirm                     0x0004c415   Thumb Code     0  ROM.lib ABSOLUTE
    le_bond_passkey_display_confirm          0x0004c475   Thumb Code     0  ROM.lib ABSOLUTE
    le_bond_keypress_notify                  0x0004c4a5   Thumb Code     0  ROM.lib ABSOLUTE
    le_bond_cfg_local_key_distribute         0x0004c4d5   Thumb Code     0  ROM.lib ABSOLUTE
    le_gap_init                              0x0004cbbd   Thumb Code     0  ROM.lib ABSOLUTE
    le_gap_msg_info_way                      0x0004cc23   Thumb Code     0  ROM.lib ABSOLUTE
    le_load_upper_stack_efuse                0x0004cc29   Thumb Code     0  ROM.lib ABSOLUTE
    le_get_max_link_num                      0x0004cc3b   Thumb Code     0  ROM.lib ABSOLUTE
    le_register_app_cb                       0x0004cc43   Thumb Code     0  ROM.lib ABSOLUTE
    le_set_gap_param                         0x0004cc49   Thumb Code     0  ROM.lib ABSOLUTE
    le_get_gap_param                         0x0004cd91   Thumb Code     0  ROM.lib ABSOLUTE
    le_modify_white_list                     0x0004ce55   Thumb Code     0  ROM.lib ABSOLUTE
    le_set_rand_addr                         0x0004ce75   Thumb Code     0  ROM.lib ABSOLUTE
    le_set_host_chann_classif                0x0004ce93   Thumb Code     0  ROM.lib ABSOLUTE
    le_cfg_local_identity_address            0x0004cea3   Thumb Code     0  ROM.lib ABSOLUTE
    le_write_default_data_len                0x0004ceb3   Thumb Code     0  ROM.lib ABSOLUTE
    gap_send_dev_state                       0x0004cec3   Thumb Code     0  ROM.lib ABSOLUTE
    le_read_rssi                             0x0004cf2f   Thumb Code     0  ROM.lib ABSOLUTE
    le_read_chann_map                        0x0004cf59   Thumb Code     0  ROM.lib ABSOLUTE
    le_set_data_len                          0x0004cf83   Thumb Code     0  ROM.lib ABSOLUTE
    le_disable_slave_latency                 0x0004cfe9   Thumb Code     0  ROM.lib ABSOLUTE
    le_set_conn_tx_power                     0x0004d03f   Thumb Code     0  ROM.lib ABSOLUTE
    le_update_passed_chann_map               0x0004d093   Thumb Code     0  ROM.lib ABSOLUTE
    le_vendor_set_rem_min_sca                0x0004d0b9   Thumb Code     0  ROM.lib ABSOLUTE
    le_link_release                          0x0004d8d3   Thumb Code     0  ROM.lib ABSOLUTE
    le_link_find_by_link_id                  0x0004d8f5   Thumb Code     0  ROM.lib ABSOLUTE
    le_get_conn_id                           0x0004d9bb   Thumb Code     0  ROM.lib ABSOLUTE
    le_link_check_conn_id_internal           0x0004da19   Thumb Code     0  ROM.lib ABSOLUTE
    le_get_conn_param                        0x0004da7f   Thumb Code     0  ROM.lib ABSOLUTE
    le_get_active_link_num                   0x0004db71   Thumb Code     0  ROM.lib ABSOLUTE
    le_get_idle_link_num                     0x0004db75   Thumb Code     0  ROM.lib ABSOLUTE
    le_get_conn_info                         0x0004db79   Thumb Code     0  ROM.lib ABSOLUTE
    le_get_conn_addr                         0x0004dbef   Thumb Code     0  ROM.lib ABSOLUTE
    le_disconnect                            0x0004dc25   Thumb Code     0  ROM.lib ABSOLUTE
    le_update_conn_param                     0x0004dc8b   Thumb Code     0  ROM.lib ABSOLUTE
    le_set_conn_param                        0x0004dccf   Thumb Code     0  ROM.lib ABSOLUTE
    le_connect                               0x0004dd79   Thumb Code     0  ROM.lib ABSOLUTE
    le_set_phy                               0x0004de43   Thumb Code     0  ROM.lib ABSOLUTE
    client_init                              0x0004e341   Thumb Code     0  ROM.lib ABSOLUTE
    client_register_general_client_cb        0x0004e36f   Thumb Code     0  ROM.lib ABSOLUTE
    client_register_spec_client_cb           0x0004e375   Thumb Code     0  ROM.lib ABSOLUTE
    client_all_primary_srv_discovery         0x0004e4f5   Thumb Code     0  ROM.lib ABSOLUTE
    client_by_uuid_srv_discovery             0x0004e529   Thumb Code     0  ROM.lib ABSOLUTE
    client_by_uuid128_srv_discovery          0x0004e55f   Thumb Code     0  ROM.lib ABSOLUTE
    client_relationship_discovery            0x0004e591   Thumb Code     0  ROM.lib ABSOLUTE
    client_all_char_discovery                0x0004e5bf   Thumb Code     0  ROM.lib ABSOLUTE
    client_by_uuid_char_discovery            0x0004e5fb   Thumb Code     0  ROM.lib ABSOLUTE
    client_by_uuid128_char_discovery         0x0004e63d   Thumb Code     0  ROM.lib ABSOLUTE
    client_all_char_descriptor_discovery     0x0004e685   Thumb Code     0  ROM.lib ABSOLUTE
    client_attr_read                         0x0004e6b3   Thumb Code     0  ROM.lib ABSOLUTE
    client_attr_read_using_uuid              0x0004e70d   Thumb Code     0  ROM.lib ABSOLUTE
    client_attr_write                        0x0004e8a1   Thumb Code     0  ROM.lib ABSOLUTE
    client_attr_ind_confirm                  0x0004ea1f   Thumb Code     0  ROM.lib ABSOLUTE
    client_get_notify_data_buffer            0x0004f29d   Thumb Code     0  ROM.lib ABSOLUTE
    client_handle_btif_msg                   0x0004f445   Thumb Code     0  ROM.lib ABSOLUTE
    server_builtin_service_reg               0x0004f4f1   Thumb Code     0  ROM.lib ABSOLUTE
    server_init                              0x0004f505   Thumb Code     0  ROM.lib ABSOLUTE
    server_register_app_cb                   0x0004f537   Thumb Code     0  ROM.lib ABSOLUTE
    server_add_service                       0x0004f66f   Thumb Code     0  ROM.lib ABSOLUTE
    server_add_service_by_start_handle       0x0004f681   Thumb Code     0  ROM.lib ABSOLUTE
    server_attr_read_confirm                 0x0004f693   Thumb Code     0  ROM.lib ABSOLUTE
    server_attr_write_confirm                0x0004f731   Thumb Code     0  ROM.lib ABSOLUTE
    server_exec_write_confirm                0x0004f779   Thumb Code     0  ROM.lib ABSOLUTE
    server_send_data                         0x0004f7a5   Thumb Code     0  ROM.lib ABSOLUTE
    server_get_write_cmd_data_buffer         0x0004fc1f   Thumb Code     0  ROM.lib ABSOLUTE
    le_find_key_entry                        0x0005018f   Thumb Code     0  ROM.lib ABSOLUTE
    le_find_key_entry_by_idx                 0x000502a1   Thumb Code     0  ROM.lib ABSOLUTE
    le_allocate_key_entry                    0x000502c1   Thumb Code     0  ROM.lib ABSOLUTE
    le_get_bond_dev_num                      0x00050323   Thumb Code     0  ROM.lib ABSOLUTE
    le_set_high_priority_bond                0x00050329   Thumb Code     0  ROM.lib ABSOLUTE
    le_get_high_priority_bond                0x00050341   Thumb Code     0  ROM.lib ABSOLUTE
    le_get_key                               0x00050365   Thumb Code     0  ROM.lib ABSOLUTE
    le_save_key                              0x00050427   Thumb Code     0  ROM.lib ABSOLUTE
    le_get_low_priority_bond                 0x000507a1   Thumb Code     0  ROM.lib ABSOLUTE
    le_get_cccd_data                         0x000507c1   Thumb Code     0  ROM.lib ABSOLUTE
    le_find_entry_by_aes                     0x0005084f   Thumb Code     0  ROM.lib ABSOLUTE
    le_resolve_random_address                0x000509d5   Thumb Code     0  ROM.lib ABSOLUTE
    le_gen_bond_dev                          0x00050a59   Thumb Code     0  ROM.lib ABSOLUTE
    le_set_privacy_info                      0x00050b05   Thumb Code     0  ROM.lib ABSOLUTE
    le_get_privacy_info                      0x00050b7b   Thumb Code     0  ROM.lib ABSOLUTE
    bond_priority_queue_add                  0x00050e1b   Thumb Code     0  ROM.lib ABSOLUTE
    imp_flash_save                           0x00050fe9   Thumb Code     0  ROM.lib ABSOLUTE
    imp_flash_load                           0x00051029   Thumb Code     0  ROM.lib ABSOLUTE
    flash_save_local_name                    0x00051071   Thumb Code     0  ROM.lib ABSOLUTE
    flash_load_local_name                    0x0005108f   Thumb Code     0  ROM.lib ABSOLUTE
    flash_save_local_appearance              0x000510af   Thumb Code     0  ROM.lib ABSOLUTE
    flash_load_local_appearance              0x000510d1   Thumb Code     0  ROM.lib ABSOLUTE
    flash_save_local_irk                     0x000510f3   Thumb Code     0  ROM.lib ABSOLUTE
    flash_load_local_irk                     0x00051115   Thumb Code     0  ROM.lib ABSOLUTE
    flash_load_le_remote_bd                  0x000511d1   Thumb Code     0  ROM.lib ABSOLUTE
    flash_load_le_local_ltk                  0x00051255   Thumb Code     0  ROM.lib ABSOLUTE
    flash_load_le_remote_ltk                 0x000512e7   Thumb Code     0  ROM.lib ABSOLUTE
    flash_load_le_remote_irk                 0x000513c3   Thumb Code     0  ROM.lib ABSOLUTE
    flash_load_le_local_csrk                 0x00051555   Thumb Code     0  ROM.lib ABSOLUTE
    flash_load_le_remote_csrk                0x0005162f   Thumb Code     0  ROM.lib ABSOLUTE
    flash_read_le_cccd_length                0x00051719   Thumb Code     0  ROM.lib ABSOLUTE
    gaps_set_parameter                       0x000518a1   Thumb Code     0  ROM.lib ABSOLUTE
    gaps_set_peripheral_preferred_conn_param 0x0005193d   Thumb Code     0  ROM.lib ABSOLUTE
    gatts_service_changed_indicate           0x0005195f   Thumb Code     0  ROM.lib ABSOLUTE
    gatt_register_callback                   0x00051ac3   Thumb Code     0  ROM.lib ABSOLUTE
    le_privacy_set_param                     0x00051b3d   Thumb Code     0  ROM.lib ABSOLUTE
    le_privacy_get_param                     0x00051b91   Thumb Code     0  ROM.lib ABSOLUTE
    le_privacy_register_cb                   0x00051bf1   Thumb Code     0  ROM.lib ABSOLUTE
    le_privacy_set_addr_resolution           0x00051bf7   Thumb Code     0  ROM.lib ABSOLUTE
    le_privacy_read_peer_resolv_addr         0x00051c77   Thumb Code     0  ROM.lib ABSOLUTE
    le_privacy_read_local_resolv_addr        0x00051c87   Thumb Code     0  ROM.lib ABSOLUTE
    le_privacy_set_resolv_priv_addr_timeout  0x00051c97   Thumb Code     0  ROM.lib ABSOLUTE
    le_privacy_modify_resolv_list            0x00051cab   Thumb Code     0  ROM.lib ABSOLUTE
    le_privacy_set_mode                      0x00051d63   Thumb Code     0  ROM.lib ABSOLUTE
    le_privacy_convert_addr_type             0x00051d73   Thumb Code     0  ROM.lib ABSOLUTE
    le_adv_set_param                         0x00051e91   Thumb Code     0  ROM.lib ABSOLUTE
    le_adv_get_param                         0x00051f95   Thumb Code     0  ROM.lib ABSOLUTE
    le_adv_read_tx_power                     0x0005202b   Thumb Code     0  ROM.lib ABSOLUTE
    le_adv_start                             0x000520c7   Thumb Code     0  ROM.lib ABSOLUTE
    le_adv_update_param                      0x0005213d   Thumb Code     0  ROM.lib ABSOLUTE
    le_adv_stop                              0x0005218b   Thumb Code     0  ROM.lib ABSOLUTE
    le_adv_set_tx_power                      0x000521d3   Thumb Code     0  ROM.lib ABSOLUTE
    le_vendor_one_shot_adv                   0x000521f9   Thumb Code     0  ROM.lib ABSOLUTE
    le_scan_set_param                        0x00052375   Thumb Code     0  ROM.lib ABSOLUTE
    le_scan_get_param                        0x00052409   Thumb Code     0  ROM.lib ABSOLUTE
    le_scan_start                            0x00052475   Thumb Code     0  ROM.lib ABSOLUTE
    le_scan_stop                             0x000524d3   Thumb Code     0  ROM.lib ABSOLUTE
    gap_send_msg_to_app                      0x00052601   Thumb Code     0  ROM.lib ABSOLUTE
    gap_send_conn_state_msg                  0x0005269b   Thumb Code     0  ROM.lib ABSOLUTE
    le_dtm_receiver_test                     0x0005289d   Thumb Code     0  ROM.lib ABSOLUTE
    le_dtm_transmitter_test                  0x000528ad   Thumb Code     0  ROM.lib ABSOLUTE
    le_dtm_test_end                          0x000528bd   Thumb Code     0  ROM.lib ABSOLUTE
    le_dtm_enhanced_receiver_test            0x000528cd   Thumb Code     0  ROM.lib ABSOLUTE
    le_dtm_enhanced_transmitter_test         0x000528dd   Thumb Code     0  ROM.lib ABSOLUTE
    vsnprintf                                0x00059911   Thumb Code     0  ROM.lib ABSOLUTE
    setlocale                                0x00059df5   Thumb Code     0  ROM.lib ABSOLUTE
    memcmp                                   0x00059e05   Thumb Code     0  ROM.lib ABSOLUTE
    strlen                                   0x00059e5d   Thumb Code     0  ROM.lib ABSOLUTE
    __aeabi_memcpy                           0x00059e9b   Thumb Code     0  ROM.lib ABSOLUTE
    __rt_memcpy                              0x00059e9b   Thumb Code     0  ROM.lib ABSOLUTE
    __aeabi_memcpy4                          0x00059fa9   Thumb Code     0  ROM.lib ABSOLUTE
    __aeabi_memcpy8                          0x00059fa9   Thumb Code     0  ROM.lib ABSOLUTE
    __aeabi_memset                           0x0005a00d   Thumb Code     0  ROM.lib ABSOLUTE
    __aeabi_memclr                           0x0005a01d   Thumb Code     0  ROM.lib ABSOLUTE
    __rt_memclr                              0x0005a01d   Thumb Code     0  ROM.lib ABSOLUTE
    _memset                                  0x0005a021   Thumb Code     0  ROM.lib ABSOLUTE
    __aeabi_memclr4                          0x0005a061   Thumb Code     0  ROM.lib ABSOLUTE
    __aeabi_memclr8                          0x0005a061   Thumb Code     0  ROM.lib ABSOLUTE
    __rt_memclr_w                            0x0005a061   Thumb Code     0  ROM.lib ABSOLUTE
    _memset_w                                0x0005a065   Thumb Code     0  ROM.lib ABSOLUTE
    exit                                     0x0005ae25   Thumb Code     0  ROM.lib ABSOLUTE
    strcmp                                   0x0005ae39   Thumb Code     0  ROM.lib ABSOLUTE
    __Vectors                                0x00200000   Data           4  startup_rtl8762c.o(VECTOR)
    SystemCpuClock                           0x002000f4   Data           0  ROM.lib ABSOLUTE
    __Vectors_End                            0x002000f4   Data           0  startup_rtl8762c.o(VECTOR)
    platform_delay_us                        0x00200154   Data           0  ROM.lib ABSOLUTE
    platform_delay_ms                        0x00200158   Data           0  ROM.lib ABSOLUTE
    otp                                      0x00200164   Data           0  ROM.lib ABSOLUTE
    flash_lock_flag                          0x002004f9   Data           0  ROM.lib ABSOLUTE
    platform_seed                            0x00200504   Data           0  ROM.lib ABSOLUTE
    platform_poly                            0x00200508   Data           0  ROM.lib ABSOLUTE
    rand_gen_init                            0x0020050c   Data           0  ROM.lib ABSOLUTE
    rand_gen_read_random_number              0x00200510   Data           0  ROM.lib ABSOLUTE
    rand_gen_reset                           0x00200514   Data           0  ROM.lib ABSOLUTE
    rtk_read_modem_radio_reg_pi              0x002005c0   Data           0  ROM.lib ABSOLUTE
    rtk_write_modem_radio_reg_pi             0x002005c4   Data           0  ROM.lib ABSOLUTE
    rtk_update_rfc_reg_pi                    0x002005ec   Data           0  ROM.lib ABSOLUTE
    phy_auto_gated_on                        0x0020094c   Data           0  ROM.lib ABSOLUTE
    phy_auto_gated_off                       0x00200950   Data           0  ROM.lib ABSOLUTE
    app_pre_main                             0x00200c38   Data           0  ROM.lib ABSOLUTE
    app_main                                 0x00200c3c   Data           0  ROM.lib ABSOLUTE
    log_seq_num                              0x00200c50   Data           0  ROM.lib ABSOLUTE
    is_log_init                              0x00200c52   Data           0  ROM.lib ABSOLUTE
    DlpsErrorCode                            0x00200c7c   Data           0  ROM.lib ABSOLUTE
    DlpsRefuseReason                         0x00200c80   Data           0  ROM.lib ABSOLUTE
    g_BasePri                                0x00200cac   Data           0  ROM.lib ABSOLUTE
    flash_device_info                        0x00200cb0   Data           0  ROM.lib ABSOLUTE
    flash_erase_enter                        0x00200ce8   Data           0  ROM.lib ABSOLUTE
    flash_erase_exit                         0x00200cec   Data           0  ROM.lib ABSOLUTE
    flash_split_read_info                    0x00200d04   Data           0  ROM.lib ABSOLUTE
    flash_dma_cfg                            0x00200d1c   Data           0  ROM.lib ABSOLUTE
    flash_sem                                0x00200d40   Data           0  ROM.lib ABSOLUTE
    pTaskHandleList                          0x00200d80   Data           0  ROM.lib ABSOLUTE
    xTimerQueue                              0x00200e58   Data           0  ROM.lib ABSOLUTE
    xFreeBytesRemaining                      0x00200ebc   Data           0  ROM.lib ABSOLUTE
    xMinimumEverFreeBytesRemaining           0x00200ec4   Data           0  ROM.lib ABSOLUTE
    xHeapTotalSize                           0x00200ecc   Data           0  ROM.lib ABSOLUTE
    xStart                                   0x00200ed4   Data           0  ROM.lib ABSOLUTE
    patch_osif_os_task_signal_send           0x00201144   Data           0  ROM.lib ABSOLUTE
    patch_osif_os_msg_send_intern            0x00201184   Data           0  ROM.lib ABSOLUTE
    patch_osif_os_timer_create               0x002011d4   Data           0  ROM.lib ABSOLUTE
    patch_vTaskSwitchContext                 0x00201238   Data           0  ROM.lib ABSOLUTE
    patch_HardFaultRecord_TryToSave          0x002013dc   Data           0  ROM.lib ABSOLUTE
    gap_common_app_cb                        0x00202df4   Data           0  ROM.lib ABSOLUTE
    gap_device_state                         0x00202e38   Data           0  ROM.lib ABSOLUTE
    gap_param_ds_pool_id                     0x00202e44   Data           0  ROM.lib ABSOLUTE
    gap_param_ds_data_offset                 0x00202e46   Data           0  ROM.lib ABSOLUTE
    gap_app_cb                               0x00202e48   Data           0  ROM.lib ABSOLUTE
    gap_link_credits                         0x00202e60   Data           0  ROM.lib ABSOLUTE
    gap_link_table                           0x00202e64   Data           0  ROM.lib ABSOLUTE
    bond_storage_num                         0x00202ebc   Data           0  ROM.lib ABSOLUTE
    le_fs_remote_bd_offset                   0x00202ee0   Data           0  ROM.lib ABSOLUTE
    le_link_block_size                       0x00202eee   Data           0  ROM.lib ABSOLUTE
    le_fs_start_offset                       0x00202ef0   Data           0  ROM.lib ABSOLUTE
    GPIO_Group3_Handler                      0x00207c01 * Thumb Code    76  system_rtl8762c.o(.ram.dataon.data)
    Image$$RAM_DATA_ON$$RO$$Base             0x00207c00   Number         0  anon$$obj.o ABSOLUTE
    GPIO_Group2_Handler                      0x00207c4d * Thumb Code    76  system_rtl8762c.o(.ram.dataon.data)
    GPIO_Group1_Handler                      0x00207c99 * Thumb Code    68  system_rtl8762c.o(.ram.dataon.data)
    GPIO_Group0_Handler                      0x00207cdd * Thumb Code    68  system_rtl8762c.o(.ram.dataon.data)
    DLPS_IO_EnterDlpsCb                      0x00207d25 * Thumb Code   248  rtl876x_io_dlps.o(.ram.dataon.data)
    DLPS_IO_ExitDlpsCb                       0x00207e1d * Thumb Code   208  rtl876x_io_dlps.o(.ram.dataon.data)
    Image$$RAM_DATA_ON$$RW$$Base             0x00208028   Number         0  anon$$obj.o ABSOLUTE
    check_reset_ram                          0x00208028   Data           4  system_rtl8762c.o(.data)
    dfu_client_id                            0x0020802d   Data           1  dfu_client.o(.data)
    dis_ieee_data_list_len                   0x0020802f   Data           1  dis.o(.data)
    temp_tid                                 0x0020812c   Data           1  strip_app.o(.data)
    sys_clk_update                           0x00208130   Data           4  strip_app.o(.data)
    pTimer_adjust                            0x00208134   Data           4  main_app.o(.data)
    weekday_list                             0x00208138   Data           7  main_app.o(.data)
    prev_bp_lv                               0x0020813f   Data           1  silent_dfu_flash.o(.data)
    mesh_log_switch                          0x00208140   Data          16  platform_diagnose.o(.data)
    const_Rb                                 0x00208171   Data          16  aes_cmac.o(.data)
    prov_proxy_ctx_id                        0x00208181   Data           1  provision_service.o(.data)
    proxy_ctx_id                             0x00208182   Data           1  proxy_service.o(.data)
    Image$$RAM_DATA_ON$$ZI$$Base             0x00208188   Number         0  anon$$obj.o ABSOLUTE
    user_wdg_cb                              0x00208188   Data           4  system_rtl8762c.o(.bss)
    user_dfu_status_cb                       0x0020818c   Data           4  system_rtl8762c.o(.bss)
    app_pre_main_cb                          0x00208190   Data           4  system_rtl8762c.o(.bss)
    random_seed_value                        0x00208194   Data           4  system_rtl8762c.o(.bss)
    PeriIntStoreReg                          0x002081a8   Data           4  rtl876x_io_dlps.o(.bss)
    User_IO_ExitDlpsCB                       0x002081ac   Data           4  rtl876x_io_dlps.o(.bss)
    User_IO_EnterDlpsCB                      0x002081b0   Data           4  rtl876x_io_dlps.o(.bss)
    CPU_StoreReg                             0x002081b4   Data         132  rtl876x_io_dlps.o(.bss)
    Pinmux_StoreReg                          0x00208238   Data          40  rtl876x_io_dlps.o(.bss)
    GPIO_StoreReg                            0x00208260   Data          36  rtl876x_io_dlps.o(.bss)
    UART_StoreReg                            0x00208284   Data          44  rtl876x_io_dlps.o(.bss)
    gSilBufCheckEN                           0x002082b0   Data           1  dfu_server.o(.bss)
    gSilFirstPage                            0x002082b1   Data           1  dfu_server.o(.bss)
    flstatus                                 0x002082b2   Data           1  dfu_server.o(.bss)
    dfu_server_id                            0x002082b3   Data           1  dfu_server.o(.bss)
    ota_tmp_buf_used_size                    0x002082b4   Data           2  dfu_server.o(.bss)
    mBufSize                                 0x002082b6   Data           2  dfu_server.o(.bss)
    mCrcVal                                  0x002082b8   Data           2  dfu_server.o(.bss)
    pfnDfuExtendedCB                         0x002082bc   Data           4  dfu_server.o(.bss)
    gSilDfuResendOffset                      0x002082c0   Data           4  dfu_server.o(.bss)
    dfu_server_adv_timer                     0x002082c4   Data           4  dfu_server.o(.bss)
    g_pOtaTempBufferHead                     0x002082c8   Data           4  dfu_server.o(.bss)
    signal                                   0x002082cc   Data           4  dfu_server.o(.bss)
    dfu_ctx                                  0x002082d0   Data          44  dfu_server.o(.bss)
    dfu_fsm_write                            0x002082fc   Data           1  dfu_client.o(.bss)
    dfu_fsm_auto_connect                     0x002082fd   Data           1  dfu_client.o(.bss)
    CpMsgLen                                 0x002082ff   Data           1  dfu_client.o(.bss)
    buffer_check_pkt_num                     0x00208300   Data           2  dfu_client.o(.bss)
    buffer_check_pkt_count                   0x00208302   Data           2  dfu_client.o(.bss)
    buffer_check_crc                         0x00208304   Data           2  dfu_client.o(.bss)
    dfu_client_ctx                           0x00208310   Data           8  dfu_client.o(.bss)
    CpMsg                                    0x00208324   Data          20  dfu_client.o(.bss)
    pfnOTAExtendedCB                         0x00208338   Data           4  ota_server.o(.bss)
    patch_version                            0x0020833c   Data           4  ota_server.o(.bss)
    patch_ext_version                        0x00208340   Data           4  ota_server.o(.bss)
    app_version                              0x00208344   Data           4  ota_server.o(.bss)
    mac_addr                                 0x00208348   Data           6  ota_server.o(.bss)
    ais_server_id                            0x00208370   Data           1  ais_server.o(.bss)
    ais_server_ctx                           0x00208378   Data          52  ais_server.o(.bss)
    dis_manufacturer_name_len                0x002083ac   Data           1  dis.o(.bss)
    dis_model_number_len                     0x002083ad   Data           1  dis.o(.bss)
    dis_serial_number_len                    0x002083ae   Data           1  dis.o(.bss)
    dis_hardware_rev_len                     0x002083af   Data           1  dis.o(.bss)
    dis_firmware_rev_len                     0x002083b0   Data           1  dis.o(.bss)
    dis_software_rev_len                     0x002083b1   Data           1  dis.o(.bss)
    fw_update_server                         0x00208430   Data          40  firmware_update_server.o(.bss)
    fw_update_server_ctx                     0x00208458   Data          40  firmware_update_server.o(.bss)
    obj_transfer_server                      0x00208480   Data          40  object_transfer_server.o(.bss)
    obj_transfer_server_ctx                  0x002084a8   Data          56  object_transfer_server.o(.bss)
    dfu_updater_nvm_info                     0x002084ec   Data          28  dfu_updater_app.o(.bss)
    dfu_updater_app_ctx                      0x00208508   Data          12  dfu_updater_app.o(.bss)
    scenario_name                            0x00208528   Data           8  overlay_mgr.o(.bss)
    switch_status                            0x00208530   Data           1  light_cwrgb_app.o(.bss)
    app_task_handle                          0x00208540   Data           4  app_task.o(.bss)
    evt_queue_handle                         0x00208544   Data           4  app_task.o(.bss)
    io_queue_handle                          0x00208548   Data           4  app_task.o(.bss)
    strip_data_current                       0x00208584   Data           8  strip_app.o(.bss)
    xTimerUpdate                             0x002085dc   Data           4  strip_timer.o(.bss)
    xTimerReport                             0x002085e0   Data           4  strip_timer.o(.bss)
    local_time                               0x002085e4   Data           8  strip_timer.o(.bss)
    timer_list                               0x002085ec   Data         320  strip_timer.o(.bss)
    gap_dev_state                            0x0020872c   Data           1  main_app.o(.bss)
    dis_server_id                            0x0020872d   Data           1  main_app.o(.bss)
    app_link_table                           0x0020872e   Data           8  main_app.o(.bss)
    appdefine_offset                         0x00208740   Data           4  silent_dfu_flash.o(.bss)
    light_dlps_ctrl                          0x00208840   Data           4  light_dlps_ctrl.o(.bss)
    gap_scheduler                            0x0020891c   Data          84  gap_scheduler.o(.bss)
    bearer_other_send                        0x00208974   Data           4  mesh_bearer.o(.bss)
    beacon_timer                             0x0020897c   Data           4  mesh_beacon.o(.bss)
    beacon_param                             0x00208980   Data           8  mesh_beacon.o(.bss)
    pf_device_info_cb                        0x0020898c   Data           4  mesh_common.o(.bss)
    prov_ctx                                 0x002089a8   Data          28  mesh_provision.o(.bss)
    mesh_service_proxy_adv_with_bt_addr      0x002089c4   Data           1  mesh_service.o(.bss)
    mesh_service_id_adv_timer                0x002089d0   Data           4  mesh_service.o(.bss)
    mesh_service_adv_param                   0x002089d4   Data           8  mesh_service.o(.bss)
    mesh_node                                0x002089dc   Data         176  mesh_node.o(.bss)
    fn_ctx                                   0x00208a8c   Data          12  friendship_fn.o(.bss)
    flash_layout_info                        0x00208a98   Data          24  mesh_flash.o(.bss)
    prov_server_id                           0x00208ab1   Data           1  provision_server.o(.bss)
    pf_pb_gatt_cb                            0x00208ab4   Data           4  provision_service.o(.bss)
    proxy_server_id                          0x00208ab9   Data           1  proxy_server.o(.bss)
    trans_tx_queue_delayed_pop               0x00208abc   Data           1  mesh_transport.o(.bss)
    trans_rx_ctx                             0x00208ac0   Data           4  mesh_transport.o(.bss)
    trans_tx_ctx                             0x00208ac4   Data         112  mesh_transport.o(.bss)
    trans_tx_queue                           0x00208b34   Data          12  mesh_transport.o(.bss)
    net_msg_cache                            0x00208b40   Data          60  mesh_network.o(.bss)
    mesh_rpl                                 0x00208b7c   Data          12  mesh_rpl.o(.bss)
    pb_adv_ctx                               0x00208b8c   Data          72  provision_adv.o(.bss)
    proxy_ctx_count                          0x00208bd4   Data           1  proxy_protocol.o(.bss)
    proxy_ctx                                0x00208bd8   Data           4  proxy_protocol.o(.bss)
    cfg_server                               0x00208c10   Data          40  configuration_server.o(.bss)
    _random_number_data                      0x00208c40   Data         228  rand.o(.bss)
    Image$$OVERLAY_A$$RO$$Base               0x00208d24   Number         0  anon$$obj.o ABSOLUTE
    Image$$OVERLAY_B$$RO$$Base               0x00208d24   Number         0  anon$$obj.o ABSOLUTE
    Image$$OVERLAY_B$$RW$$Base               0x00208d24   Number         0  anon$$obj.o ABSOLUTE
    Image$$OVERLAY_B$$ZI$$Base               0x00208d24   Number         0  anon$$obj.o ABSOLUTE
    Image$$OVERLAY_C$$RO$$Base               0x00208d24   Number         0  anon$$obj.o ABSOLUTE
    Image$$OVERLAY_C$$RW$$Base               0x00208d24   Number         0  anon$$obj.o ABSOLUTE
    Image$$OVERLAY_C$$ZI$$Base               0x00208d24   Number         0  anon$$obj.o ABSOLUTE
    Image$$OVERLAY_A$$RW$$Base               0x00208df8   Number         0  anon$$obj.o ABSOLUTE
    Image$$OVERLAY_A$$ZI$$Base               0x00208df8   Number         0  anon$$obj.o ABSOLUTE
    Image$$CACHE_DATA_ON$$RO$$Base           0x0021c000   Number         0  anon$$obj.o ABSOLUTE
    Image$$CACHE_DATA_ON$$RW$$Base           0x0021c000   Number         0  anon$$obj.o ABSOLUTE
    Image$$CACHE_DATA_ON$$ZI$$Base           0x0021c000   Number         0  anon$$obj.o ABSOLUTE
    img_header                               0x0080e000   Data         480  system_rtl8762c.o(.app.flash.header)
    auth_header                              0x0080e1e0   Data         544  system_rtl8762c.o(.app.flash.header)
    Image$$FLASH_START_ADDR$$RO$$Base        0x0080e400   Number         0  anon$$obj.o ABSOLUTE
    Load$$FLASH_START_ADDR$$RO$$Base         0x0080e400   Number         0  anon$$obj.o ABSOLUTE
    Reset_Handler                            0x0080e401   Thumb Code     4  startup_rtl8762c.o(RESET)
    __main                                   0x0080e409   Thumb Code     8  __main.o(!!!main)
    _printf_percent                          0x0080e411   Thumb Code     0  _printf_percent.o(.ARM.Collect$$_printf_percent$$00000000)
    _printf_x                                0x0080e411   Thumb Code     0  _printf_x.o(.ARM.Collect$$_printf_percent$$0000000C)
    _printf_percent_end                      0x0080e417   Thumb Code     0  _printf_percent_end.o(.ARM.Collect$$_printf_percent$$00000017)
    __rt_lib_init                            0x0080e41b   Thumb Code     0  libinit.o(.ARM.Collect$$libinit$$00000000)
    __rt_lib_init_fp_1                       0x0080e41d   Thumb Code     0  libinit2.o(.ARM.Collect$$libinit$$00000001)
    __rt_lib_init_heap_1                     0x0080e421   Thumb Code     0  libinit2.o(.ARM.Collect$$libinit$$0000000A)
    __rt_lib_init_preinit_1                  0x0080e421   Thumb Code     0  libinit2.o(.ARM.Collect$$libinit$$00000004)
    __rt_lib_init_rand_2                     0x0080e421   Thumb Code     0  libinit2.o(.ARM.Collect$$libinit$$0000000D)
    __rt_lib_init_user_alloc_1               0x0080e421   Thumb Code     0  libinit2.o(.ARM.Collect$$libinit$$0000000C)
    __rt_lib_init_alloca_1                   0x0080e425   Thumb Code     0  libinit2.o(.ARM.Collect$$libinit$$0000002E)
    __rt_lib_init_argv_1                     0x0080e425   Thumb Code     0  libinit2.o(.ARM.Collect$$libinit$$0000002C)
    __rt_lib_init_atexit_1                   0x0080e425   Thumb Code     0  libinit2.o(.ARM.Collect$$libinit$$0000001B)
    __rt_lib_init_clock_1                    0x0080e425   Thumb Code     0  libinit2.o(.ARM.Collect$$libinit$$00000021)
    __rt_lib_init_cpp_1                      0x0080e425   Thumb Code     0  libinit2.o(.ARM.Collect$$libinit$$00000032)
    __rt_lib_init_exceptions_1               0x0080e425   Thumb Code     0  libinit2.o(.ARM.Collect$$libinit$$00000030)
    __rt_lib_init_fp_trap_1                  0x0080e425   Thumb Code     0  libinit2.o(.ARM.Collect$$libinit$$0000001F)
    __rt_lib_init_getenv_1                   0x0080e425   Thumb Code     0  libinit2.o(.ARM.Collect$$libinit$$00000023)
    __rt_lib_init_lc_collate_1               0x0080e425   Thumb Code     0  libinit2.o(.ARM.Collect$$libinit$$00000011)
    __rt_lib_init_lc_ctype_1                 0x0080e425   Thumb Code     0  libinit2.o(.ARM.Collect$$libinit$$00000013)
    __rt_lib_init_lc_monetary_1              0x0080e425   Thumb Code     0  libinit2.o(.ARM.Collect$$libinit$$00000015)
    __rt_lib_init_lc_numeric_1               0x0080e425   Thumb Code     0  libinit2.o(.ARM.Collect$$libinit$$00000017)
    __rt_lib_init_lc_time_1                  0x0080e425   Thumb Code     0  libinit2.o(.ARM.Collect$$libinit$$00000019)
    __rt_lib_init_rand_1                     0x0080e425   Thumb Code     0  libinit2.o(.ARM.Collect$$libinit$$0000000E)
    __rt_lib_init_return                     0x0080e425   Thumb Code     0  libinit2.o(.ARM.Collect$$libinit$$00000033)
    __rt_lib_init_signal_1                   0x0080e425   Thumb Code     0  libinit2.o(.ARM.Collect$$libinit$$0000001D)
    __rt_lib_init_stdio_1                    0x0080e425   Thumb Code     0  libinit2.o(.ARM.Collect$$libinit$$00000025)
    __rt_entry                               0x0080e427   Thumb Code     0  __rtentry.o(.ARM.Collect$$rtentry$$00000000)
    __rt_entry_presh_1                       0x0080e427   Thumb Code     0  __rtentry2.o(.ARM.Collect$$rtentry$$00000002)
    __rt_entry_sh                            0x0080e427   Thumb Code     0  __rtentry4.o(.ARM.Collect$$rtentry$$00000004)
    __rt_entry_li                            0x0080e42d   Thumb Code     0  __rtentry2.o(.ARM.Collect$$rtentry$$0000000A)
    __rt_entry_postsh_1                      0x0080e42d   Thumb Code     0  __rtentry2.o(.ARM.Collect$$rtentry$$00000009)
    __rt_entry_main                          0x0080e431   Thumb Code     0  __rtentry2.o(.ARM.Collect$$rtentry$$0000000D)
    __rt_entry_postli_1                      0x0080e431   Thumb Code     0  __rtentry2.o(.ARM.Collect$$rtentry$$0000000C)
    ram_init                                 0x0080e439   Thumb Code    62  system_rtl8762c.o(.app.flash.text)
    random_seed_init                         0x0080e477   Thumb Code    92  system_rtl8762c.o(.app.flash.text)
    print_reset_reason                       0x0080e4d3   Thumb Code    76  system_rtl8762c.o(.app.flash.text)
    pre_main                                 0x0080e51f   Thumb Code   104  system_rtl8762c.o(.app.flash.text)
    SystemInit                               0x0080e587   Thumb Code   170  system_rtl8762c.o(.app.flash.text)
    bt_stack_config_init                     0x0080e6c9   Thumb Code     6  main.o(.app.flash.text)
    gap_config_le_link_number                0x0080e6d1   Thumb Code    36  gap_config.o(.app.flash.text)
    gap_config_bt_bd_addr                    0x0080e6f5   Thumb Code    42  gap_config.o(.app.flash.text)
    gap_config_ae_parameter                  0x0080e71f   Thumb Code     8  gap_config.o(.app.flash.text)
    gap_config_cccd_not_check                0x0080e727   Thumb Code    18  gap_config.o(.app.flash.text)
    gap_config_le_min_rem_sca                0x0080e739   Thumb Code    22  gap_config.o(.app.flash.text)
    gap_config_bte_pool_size                 0x0080e74f   Thumb Code    22  gap_config.o(.app.flash.text)
    gap_config_bt_report_buf_num             0x0080e765   Thumb Code    10  gap_config.o(.app.flash.text)
    gap_config_ccc_bits_count                0x0080e76f   Thumb Code    14  gap_config.o(.app.flash.text)
    gap_config_max_attribute_table_count     0x0080e77d   Thumb Code    10  gap_config.o(.app.flash.text)
    gap_config_max_mtu_size                  0x0080e787   Thumb Code    10  gap_config.o(.app.flash.text)
    gap_config_le_key_storage_flag           0x0080e791   Thumb Code    10  gap_config.o(.app.flash.text)
    gap_config_max_le_paired_device          0x0080e79b   Thumb Code    10  gap_config.o(.app.flash.text)
    gap_config_bqb_en                        0x0080e7a5   Thumb Code    18  gap_config.o(.app.flash.text)
    gap_config_l2c_param                     0x0080e7b7   Thumb Code    18  gap_config.o(.app.flash.text)
    rand                                     0x0080e7d1   Thumb Code    48  rand.o(.emb_text)
    ADC_Handler                              0x0080e805   Thumb Code     0  startup_rtl8762c.o(.text)
    BTMAC_Handler                            0x0080e805   Thumb Code     0  startup_rtl8762c.o(.text)
    BusFault_Handler                         0x0080e805   Thumb Code     0  startup_rtl8762c.o(.text)
    DebugMon_Handler                         0x0080e805   Thumb Code     0  startup_rtl8762c.o(.text)
    Default_Handler                          0x0080e805   Thumb Code    16  startup_rtl8762c.o(.text)
    GDMA0_Channel0_Handler                   0x0080e805   Thumb Code     0  startup_rtl8762c.o(.text)
    GDMA0_Channel1_Handler                   0x0080e805   Thumb Code     0  startup_rtl8762c.o(.text)
    GDMA0_Channel2_Handler                   0x0080e805   Thumb Code     0  startup_rtl8762c.o(.text)
    GDMA0_Channel3_Handler                   0x0080e805   Thumb Code     0  startup_rtl8762c.o(.text)
    GDMA0_Channel4_Handler                   0x0080e805   Thumb Code     0  startup_rtl8762c.o(.text)
    GDMA0_Channel5_Handler                   0x0080e805   Thumb Code     0  startup_rtl8762c.o(.text)
    GPIO0_Handler                            0x0080e805   Thumb Code     0  startup_rtl8762c.o(.text)
    GPIO10_Handler                           0x0080e805   Thumb Code     0  startup_rtl8762c.o(.text)
    GPIO11_Handler                           0x0080e805   Thumb Code     0  startup_rtl8762c.o(.text)
    GPIO12_Handler                           0x0080e805   Thumb Code     0  startup_rtl8762c.o(.text)
    GPIO13_Handler                           0x0080e805   Thumb Code     0  startup_rtl8762c.o(.text)
    GPIO14_Handler                           0x0080e805   Thumb Code     0  startup_rtl8762c.o(.text)
    GPIO15_Handler                           0x0080e805   Thumb Code     0  startup_rtl8762c.o(.text)
    GPIO16_Handler                           0x0080e805   Thumb Code     0  startup_rtl8762c.o(.text)
    GPIO17_Handler                           0x0080e805   Thumb Code     0  startup_rtl8762c.o(.text)
    GPIO18_Handler                           0x0080e805   Thumb Code     0  startup_rtl8762c.o(.text)
    GPIO19_Handler                           0x0080e805   Thumb Code     0  startup_rtl8762c.o(.text)
    GPIO1_Handler                            0x0080e805   Thumb Code     0  startup_rtl8762c.o(.text)
    GPIO21_Handler                           0x0080e805   Thumb Code     0  startup_rtl8762c.o(.text)
    GPIO22_Handler                           0x0080e805   Thumb Code     0  startup_rtl8762c.o(.text)
    GPIO23_Handler                           0x0080e805   Thumb Code     0  startup_rtl8762c.o(.text)
    GPIO24_Handler                           0x0080e805   Thumb Code     0  startup_rtl8762c.o(.text)
    GPIO25_Handler                           0x0080e805   Thumb Code     0  startup_rtl8762c.o(.text)
    GPIO26_Handler                           0x0080e805   Thumb Code     0  startup_rtl8762c.o(.text)
    GPIO27_Handler                           0x0080e805   Thumb Code     0  startup_rtl8762c.o(.text)
    GPIO28_Handler                           0x0080e805   Thumb Code     0  startup_rtl8762c.o(.text)
    GPIO29_Handler                           0x0080e805   Thumb Code     0  startup_rtl8762c.o(.text)
    GPIO2_Handler                            0x0080e805   Thumb Code     0  startup_rtl8762c.o(.text)
    GPIO30_Handler                           0x0080e805   Thumb Code     0  startup_rtl8762c.o(.text)
    GPIO31_Handler                           0x0080e805   Thumb Code     0  startup_rtl8762c.o(.text)
    GPIO3_Handler                            0x0080e805   Thumb Code     0  startup_rtl8762c.o(.text)
    GPIO4_Handler                            0x0080e805   Thumb Code     0  startup_rtl8762c.o(.text)
    GPIO5_Handler                            0x0080e805   Thumb Code     0  startup_rtl8762c.o(.text)
    GPIO6_Handler                            0x0080e805   Thumb Code     0  startup_rtl8762c.o(.text)
    GPIO7_Handler                            0x0080e805   Thumb Code     0  startup_rtl8762c.o(.text)
    GPIO8_Handler                            0x0080e805   Thumb Code     0  startup_rtl8762c.o(.text)
    GPIO9_Handler                            0x0080e805   Thumb Code     0  startup_rtl8762c.o(.text)
    HardFault_Handler                        0x0080e805   Thumb Code     0  startup_rtl8762c.o(.text)
    I2C0_Handler                             0x0080e805   Thumb Code     0  startup_rtl8762c.o(.text)
    I2C1_Handler                             0x0080e805   Thumb Code     0  startup_rtl8762c.o(.text)
    I2S0_RX_Handler                          0x0080e805   Thumb Code     0  startup_rtl8762c.o(.text)
    I2S0_TX_Handler                          0x0080e805   Thumb Code     0  startup_rtl8762c.o(.text)
    I2S1_RX_Handler                          0x0080e805   Thumb Code     0  startup_rtl8762c.o(.text)
    I2S1_TX_Handler                          0x0080e805   Thumb Code     0  startup_rtl8762c.o(.text)
    IR_Handler                               0x0080e805   Thumb Code     0  startup_rtl8762c.o(.text)
    Keyscan_Handler                          0x0080e805   Thumb Code     0  startup_rtl8762c.o(.text)
    LCD_Handler                              0x0080e805   Thumb Code     0  startup_rtl8762c.o(.text)
    LPCOMP_Handler                           0x0080e805   Thumb Code     0  startup_rtl8762c.o(.text)
    MemManage_Handler                        0x0080e805   Thumb Code     0  startup_rtl8762c.o(.text)
    NMI_Handler                              0x0080e805   Thumb Code     0  startup_rtl8762c.o(.text)
    PTA_Mailbox_Handler                      0x0080e805   Thumb Code     0  startup_rtl8762c.o(.text)
    PendSV_Handler                           0x0080e805   Thumb Code     0  startup_rtl8762c.o(.text)
    Peripheral_Handler                       0x0080e805   Thumb Code     0  startup_rtl8762c.o(.text)
    Qdecode_Handler                          0x0080e805   Thumb Code     0  startup_rtl8762c.o(.text)
    SPI0_Handler                             0x0080e805   Thumb Code     0  startup_rtl8762c.o(.text)
    SPI1_Handler                             0x0080e805   Thumb Code     0  startup_rtl8762c.o(.text)
    SPI2W_Handler                            0x0080e805   Thumb Code     0  startup_rtl8762c.o(.text)
    SPI_Flash_Handler                        0x0080e805   Thumb Code     0  startup_rtl8762c.o(.text)
    SVC_Handler                              0x0080e805   Thumb Code     0  startup_rtl8762c.o(.text)
    SysTick_Handler                          0x0080e805   Thumb Code     0  startup_rtl8762c.o(.text)
    System_Handler                           0x0080e805   Thumb Code     0  startup_rtl8762c.o(.text)
    Timer2_Handler                           0x0080e805   Thumb Code     0  startup_rtl8762c.o(.text)
    Timer3_Handler                           0x0080e805   Thumb Code     0  startup_rtl8762c.o(.text)
    Timer4_7_Handler                         0x0080e805   Thumb Code     0  startup_rtl8762c.o(.text)
    Timer4_Handler                           0x0080e805   Thumb Code     0  startup_rtl8762c.o(.text)
    Timer5_Handler                           0x0080e805   Thumb Code     0  startup_rtl8762c.o(.text)
    Timer6_Handler                           0x0080e805   Thumb Code     0  startup_rtl8762c.o(.text)
    Timer7_Handler                           0x0080e805   Thumb Code     0  startup_rtl8762c.o(.text)
    UART1_Handler                            0x0080e805   Thumb Code     0  startup_rtl8762c.o(.text)
    UART2_Handler                            0x0080e805   Thumb Code     0  startup_rtl8762c.o(.text)
    UsageFault_Handler                       0x0080e805   Thumb Code     0  startup_rtl8762c.o(.text)
    WDG_Handler                              0x0080e805   Thumb Code     0  startup_rtl8762c.o(.text)
    __user_setup_stackheap                   0x0080e815   Thumb Code     2  startup_rtl8762c.o(.text)
    common_main                              0x0080e855   Thumb Code    74  system_rtl8762c.o(.text)
    WDG_SystemReset                          0x0080e89f   Thumb Code    10  system_rtl8762c.o(.text)
    flash_try_high_speed                     0x0080e8a9   Thumb Code    48  system_rtl8762c.o(.text)
    malloc                                   0x0080e8d9   Thumb Code    14  system_rtl8762c.o(.text)
    calloc                                   0x0080e8e7   Thumb Code    16  system_rtl8762c.o(.text)
    realloc                                  0x0080e8f7   Thumb Code    30  system_rtl8762c.o(.text)
    free                                     0x0080e915   Thumb Code     4  system_rtl8762c.o(.text)
    app_cb0_wdg_reset                        0x0080e919   Thumb Code    16  system_rtl8762c.o(.text)
    app_cb5_dfu_status                       0x0080e929   Thumb Code    12  system_rtl8762c.o(.text)
    get_cpu_clock                            0x0080e935   Thumb Code     6  system_rtl8762c.o(.text)
    get_ic_euid                              0x0080e93b   Thumb Code    20  system_rtl8762c.o(.text)
    get_ic_type                              0x0080e94f   Thumb Code     8  system_rtl8762c.o(.text)
    DLPS_IORegister                          0x0080e9bd   Thumb Code    22  rtl876x_io_dlps.o(.text)
    RCC_PeriphClockCmd                       0x0080e9dd   Thumb Code   292  rtl876x_rcc.o(.text)
    RCC_SPIClkDivConfig                      0x0080eb01   Thumb Code   112  rtl876x_rcc.o(.text)
    RCC_I2CClkDivConfig                      0x0080eb71   Thumb Code   110  rtl876x_rcc.o(.text)
    RCC_UARTClkDivConfig                     0x0080ebdf   Thumb Code   114  rtl876x_rcc.o(.text)
    RCC_PeriClockConfig                      0x0080ec51   Thumb Code   106  rtl876x_rcc.o(.text)
    RCC_PeriFunctionConfig                   0x0080ecbb   Thumb Code    90  rtl876x_rcc.o(.text)
    TIM_DeInit                               0x0080ed35   Thumb Code    12  rtl876x_tim.o(.text)
    TIM_TimeBaseInit                         0x0080ed41   Thumb Code   294  rtl876x_tim.o(.text)
    TIM_StructInit                           0x0080ee67   Thumb Code    28  rtl876x_tim.o(.text)
    TIM_Cmd                                  0x0080ee83   Thumb Code    20  rtl876x_tim.o(.text)
    TIM_ChangePeriod                         0x0080ee97   Thumb Code     4  rtl876x_tim.o(.text)
    TIM_INTConfig                            0x0080ee9b   Thumb Code    20  rtl876x_tim.o(.text)
    TIM_PWMChangeFreqAndDuty                 0x0080eeaf   Thumb Code    22  rtl876x_tim.o(.text)
    UART_Init                                0x0080eed1   Thumb Code   194  rtl876x_uart.o(.text)
    UART_DeInit                              0x0080ef93   Thumb Code    48  rtl876x_uart.o(.text)
    UART_StructInit                          0x0080efc3   Thumb Code    46  rtl876x_uart.o(.text)
    UART_ReceiveData                         0x0080eff1   Thumb Code    16  rtl876x_uart.o(.text)
    UART_SendData                            0x0080f001   Thumb Code    16  rtl876x_uart.o(.text)
    UART_INTConfig                           0x0080f011   Thumb Code    86  rtl876x_uart.o(.text)
    UART_GetFlagState                        0x0080f067   Thumb Code    28  rtl876x_uart.o(.text)
    UART_LoopBackCmd                         0x0080f083   Thumb Code    20  rtl876x_uart.o(.text)
    UART_ChangeBaudRate                      0x0080f097   Thumb Code    60  rtl876x_uart.o(.text)
    UART_ChangeParams                        0x0080f0d3   Thumb Code     8  rtl876x_uart.o(.text)
    GPIO_DeInit                              0x0080f0fd   Thumb Code    12  rtl876x_gpio.o(.text)
    GPIO_Init                                0x0080f109   Thumb Code   190  rtl876x_gpio.o(.text)
    GPIO_StructInit                          0x0080f1c7   Thumb Code    26  rtl876x_gpio.o(.text)
    GPIO_INTConfig                           0x0080f1e1   Thumb Code    18  rtl876x_gpio.o(.text)
    GPIO_ClearINTPendingBit                  0x0080f1f3   Thumb Code     6  rtl876x_gpio.o(.text)
    GPIO_MaskINTConfig                       0x0080f1f9   Thumb Code    18  rtl876x_gpio.o(.text)
    GPIO_GetPin                              0x0080f20b   Thumb Code    42  rtl876x_gpio.o(.text)
    GPIO_GetNum                              0x0080f235   Thumb Code    38  rtl876x_gpio.o(.text)
    GPIO_DBClkCmd                            0x0080f25b   Thumb Code    28  rtl876x_gpio.o(.text)
    dfu_decrypt                              0x0080f281   Thumb Code    52  dfu_server.o(.text)
    dfu_server_adv_send                      0x0080f2b5   Thumb Code   138  dfu_server.o(.text)
    dfu_server_timer_start                   0x0080f377   Thumb Code    68  dfu_server.o(.text)
    dfu_server_timer_stop                    0x0080f3bb   Thumb Code    24  dfu_server.o(.text)
    dfu_server_buffer_check                  0x0080f3d3   Thumb Code   498  dfu_server.o(.text)
    dfu_server_handle_cp                     0x0080f5c5   Thumb Code  1464  dfu_server.o(.text)
    dfu_server_handle_data                   0x0080fb7d   Thumb Code   274  dfu_server.o(.text)
    dfu_attr_write_cb                        0x0080fc8f   Thumb Code    50  dfu_server.o(.text)
    dfu_cccd_update_cb                       0x0080fcc1   Thumb Code    64  dfu_server.o(.text)
    dfu_server_disconnect_cb                 0x0080fd01   Thumb Code    80  dfu_server.o(.text)
    dfu_server_add                           0x0080fd51   Thumb Code    68  dfu_server.o(.text)
    dfu_client_handle_set                    0x0080fdbd   Thumb Code    18  dfu_client.o(.text)
    dfu_client_handle_get                    0x0080fdcf   Thumb Code     8  dfu_client.o(.text)
    dfu_client_start_discovery               0x0080fdd7   Thumb Code    62  dfu_client.o(.text)
    dfu_client_read_by_handle                0x0080fe15   Thumb Code    48  dfu_client.o(.text)
    dfu_client_read_by_uuid                  0x0080fe45   Thumb Code    62  dfu_client.o(.text)
    dfu_client_cp_cccd_set                   0x0080fe83   Thumb Code    58  dfu_client.o(.text)
    dfu_client_cp_write                      0x0080febd   Thumb Code   126  dfu_client.o(.text)
    dfu_client_data_write                    0x0080ff3b   Thumb Code    60  dfu_client.o(.text)
    dfu_client_disconnect_cb                 0x00810283   Thumb Code    94  dfu_client.o(.text)
    dfu_encrypt                              0x008102e1   Thumb Code    50  dfu_client.o(.text)
    dfu_client_crc_cal                       0x00810313   Thumb Code    24  dfu_client.o(.text)
    dfu_client_push_image                    0x0081032b   Thumb Code   338  dfu_client.o(.text)
    dfu_client_handle_cp_msg                 0x0081047d   Thumb Code   764  dfu_client.o(.text)
    dfu_client_handle_msg                    0x00810779   Thumb Code   344  dfu_client.o(.text)
    dfu_client_handle_connecting             0x008108d1   Thumb Code    56  dfu_client.o(.text)
    dfu_client_handle_connect                0x00810909   Thumb Code    16  dfu_client.o(.text)
    dfu_client_handle_adv_pkt                0x00810919   Thumb Code   440  dfu_client.o(.text)
    dfu_client_add                           0x00810ad1   Thumb Code   100  dfu_client.o(.text)
    ota_attr_write_cb                        0x00810b9d   Thumb Code   164  ota_server.o(.text)
    ota_attr_read_cb                         0x00810c41   Thumb Code   418  ota_server.o(.text)
    ota_server_add                           0x00810de3   Thumb Code    64  ota_server.o(.text)
    ais_server_timer_start                   0x00810e75   Thumb Code    66  ais_server.o(.text)
    ais_server_timer_stop                    0x00810eb7   Thumb Code    24  ais_server.o(.text)
    ais_server_adv                           0x00810ecf   Thumb Code   146  ais_server.o(.text)
    ais_server_send                          0x00810f61   Thumb Code   236  ais_server.o(.text)
    ais_server_indicate                      0x0081104d   Thumb Code    82  ais_server.o(.text)
    ais_server_send_device_report            0x0081109f   Thumb Code    26  ais_server.o(.text)
    ais_server_send_device_resp              0x008110b9   Thumb Code    34  ais_server.o(.text)
    ais_server_send_device_exception         0x008110db   Thumb Code    56  ais_server.o(.text)
    ais_server_send_resp                     0x00811113   Thumb Code    30  ais_server.o(.text)
    ais_server_notify                        0x00811131   Thumb Code    82  ais_server.o(.text)
    ais_server_send_ota_msg                  0x00811183   Thumb Code    22  ais_server.o(.text)
    ais_server_get_image_ver                 0x00811199   Thumb Code    52  ais_server.o(.text)
    ais_server_handle_msg                    0x008111cd   Thumb Code  1536  ais_server.o(.text)
    ais_server_read_cb                       0x008117cd   Thumb Code    50  ais_server.o(.text)
    ais_server_write_cb                      0x008117ff   Thumb Code    92  ais_server.o(.text)
    ais_server_cccd_update_cb                0x0081185b   Thumb Code    26  ais_server.o(.text)
    ais_server_disconnect_cb                 0x00811875   Thumb Code    28  ais_server.o(.text)
    ais_server_add                           0x00811891   Thumb Code    84  ais_server.o(.text)
    ais_ota_conse_pkt_num_set                0x008118e5   Thumb Code    18  ais_server.o(.text)
    dis_set_parameter                        0x0081192d   Thumb Code   204  dis.o(.text)
    dis_attr_read_cb                         0x008119f9   Thumb Code   354  dis.o(.text)
    dis_add_service                          0x00811b5b   Thumb Code    64  dis.o(.text)
    health_server_fault_count                0x00811d4b   Thumb Code     6  health_server.o(.text)
    health_server_set_tests                  0x00811d51   Thumb Code     8  health_server.o(.text)
    health_server_set_company_id             0x00811d59   Thumb Code     6  health_server.o(.text)
    health_server_fault_register             0x00811d5f   Thumb Code    92  health_server.o(.text)
    health_server_fault_clear                0x00811dbb   Thumb Code    20  health_server.o(.text)
    health_server_fault_clear_all            0x00811dcf   Thumb Code    22  health_server.o(.text)
    health_server_fault_is_set               0x00811de5   Thumb Code    28  health_server.o(.text)
    health_server_reg                        0x00811f91   Thumb Code    82  health_server.o(.text)
    fw_info_stat                             0x00812071   Thumb Code    90  firmware_update_server.o(.text)
    fw_update_stat                           0x008120cb   Thumb Code    94  firmware_update_server.o(.text)
    fw_update_server_handle_fw_update_prepare 0x00812157   Thumb Code   272  firmware_update_server.o(.text)
    fw_update_server_handle_fw_update_start  0x00812267   Thumb Code   116  firmware_update_server.o(.text)
    fw_update_server_handle_fw_update_abort  0x008122db   Thumb Code   112  firmware_update_server.o(.text)
    fw_update_server_handle_fw_update_apply  0x0081234b   Thumb Code    90  firmware_update_server.o(.text)
    fw_update_server_receive                 0x008123a5   Thumb Code   200  firmware_update_server.o(.text)
    fw_update_server_reg                     0x0081246d   Thumb Code    44  firmware_update_server.o(.text)
    fw_update_server_load                    0x00812499   Thumb Code    36  firmware_update_server.o(.text)
    fw_update_server_clear                   0x008124bd   Thumb Code    10  firmware_update_server.o(.text)
    fw_update_server_ready                   0x008124c7   Thumb Code    40  firmware_update_server.o(.text)
    obj_transfer_phase_stat                  0x00812529   Thumb Code    64  object_transfer_server.o(.text)
    obj_transfer_stat                        0x00812569   Thumb Code    52  object_transfer_server.o(.text)
    obj_block_transfer_stat                  0x0081259d   Thumb Code    28  object_transfer_server.o(.text)
    obj_block_stat                           0x008125b9   Thumb Code    88  object_transfer_server.o(.text)
    obj_info_stat                            0x00812611   Thumb Code    36  object_transfer_server.o(.text)
    obj_transfer_server_verify_checksum      0x00812635   Thumb Code    12  object_transfer_server.o(.text)
    obj_transfer_server_handle_obj_block_transfer_start 0x00812641   Thumb Code   294  object_transfer_server.o(.text)
    obj_transfer_server_handle_obj_chunk_transfer 0x00812767   Thumb Code   380  object_transfer_server.o(.text)
    obj_transfer_server_handle_obj_block_get 0x008128e3   Thumb Code   172  object_transfer_server.o(.text)
    obj_transfer_server_receive              0x0081298f   Thumb Code   598  object_transfer_server.o(.text)
    obj_transfer_server_reg                  0x00812be5   Thumb Code    46  object_transfer_server.o(.text)
    obj_transfer_server_load                 0x00812c13   Thumb Code    88  object_transfer_server.o(.text)
    obj_transfer_server_clear                0x00812c6b   Thumb Code    24  object_transfer_server.o(.text)
    obj_transfer_server_busy                 0x00812c83   Thumb Code    14  object_transfer_server.o(.text)
    generic_on_off_publish                   0x00812d37   Thumb Code    46  generic_on_off_server.o(.text)
    generic_on_off_server_reg                0x00812f9b   Thumb Code   120  generic_on_off_server.o(.text)
    generic_transition_time_convert          0x0081305d   Thumb Code    24  generic_transition_time.o(.text)
    generic_transition_timer_start           0x008131f3   Thumb Code    60  generic_transition_time.o(.text)
    generic_transition_timer_stop            0x0081322f   Thumb Code    38  generic_transition_time.o(.text)
    generic_transition_time_get              0x00813255   Thumb Code    54  generic_transition_time.o(.text)
    generic_transition_time_init             0x0081328b   Thumb Code    18  generic_transition_time.o(.text)
    delay_execution_handler                  0x008132b5   Thumb Code    30  delay_execution.o(.text)
    delay_execution_timer_start              0x00813321   Thumb Code   200  delay_execution.o(.text)
    delay_execution_timer_stop               0x008133e9   Thumb Code    70  delay_execution.o(.text)
    delay_execution_init                     0x0081342f   Thumb Code    22  delay_execution.o(.text)
    ali_attr_get                             0x00813465   Thumb Code   108  ali_model.o(.text)
    ali_attr_conf                            0x008134d1   Thumb Code    68  ali_model.o(.text)
    ali_attr_msg_raw                         0x00813515   Thumb Code   142  ali_model.o(.text)
    ali_attr_msg                             0x008135a3   Thumb Code   218  ali_model.o(.text)
    ali_transparent_msg                      0x0081367d   Thumb Code   102  ali_model.o(.text)
    ali_model_reg                            0x008136e3   Thumb Code    56  ali_model.o(.text)
    dfu_updater_nvm_load                     0x00813729   Thumb Code    50  dfu_updater_app.o(.text)
    dfu_updater_nvm_clear                    0x0081375b   Thumb Code    52  dfu_updater_app.o(.text)
    fw_update_server_data_cb                 0x0081378f   Thumb Code   258  dfu_updater_app.o(.text)
    obj_transfer_server_data_cb              0x00813891   Thumb Code   210  dfu_updater_app.o(.text)
    dfu_updater_load                         0x00813963   Thumb Code    62  dfu_updater_app.o(.text)
    dfu_updater_clear                        0x008139a1   Thumb Code    18  dfu_updater_app.o(.text)
    dfu_updater_models_init                  0x008139b3   Thumb Code    36  dfu_updater_app.o(.text)
    light_driver_init                        0x00813a0d   Thumb Code    30  dimmable_light.o(.text)
    light_lighten                            0x00813a2b   Thumb Code    80  dimmable_light.o(.text)
    light_set_lightness                      0x00813a7b   Thumb Code    22  dimmable_light.o(.text)
    light_set_all_turn_on                    0x00813a91   Thumb Code     6  dimmable_light.o(.text)
    light_pin_config                         0x00813a97   Thumb Code   134  dimmable_light.o(.text)
    light_pwmControl_driver_init             0x00813b1d   Thumb Code    32  dimmable_light.o(.text)
    light_blink_infinite                     0x00813b3d   Thumb Code    64  dimmable_light.o(.text)
    light_blink_ledPwm                       0x00813b7d   Thumb Code    10  dimmable_light.o(.text)
    light_set_all_turn_off                   0x00813b87   Thumb Code     6  dimmable_light.o(.text)
    light_pin_dlps_config                    0x00813b8d   Thumb Code    36  dimmable_light.o(.text)
    light_set_enter_dlps                     0x00813bb1   Thumb Code    24  dimmable_light.o(.text)
    plug_light_enter_dlps_config             0x00813bc9   Thumb Code    44  dimmable_light.o(.text)
    plug_light_exit_dlps_config              0x00813bf5   Thumb Code     2  dimmable_light.o(.text)
    light_flash_write                        0x00813bf7   Thumb Code    84  dimmable_light.o(.text)
    light_flash_read                         0x00813c4b   Thumb Code    74  dimmable_light.o(.text)
    light_power_on_count_check               0x00813cb1   Thumb Code    80  dimmable_light.o(.text)
    mp_cmd_parse                             0x00813d91   Thumb Code   354  mp_cmd_parse.o(.text)
    mp_cmd_init                              0x00813ef3   Thumb Code    74  mp_cmd_parse.o(.text)
    load_overlay                             0x00813f51   Thumb Code    76  overlay_mgr.o(.text)
    get_current_scenario_index               0x00813f9d   Thumb Code    38  overlay_mgr.o(.text)
    light_prov_complete_cb                   0x00813fcd   Thumb Code     4  light_effect_app.o(.text)
    light_prov_unprov                        0x00813fd1   Thumb Code    20  light_effect_app.o(.text)
    light_prov_link_open                     0x00813fe5   Thumb Code     4  light_effect_app.o(.text)
    light_prov_link_closed                   0x00813fe9   Thumb Code     2  light_effect_app.o(.text)
    light_prov_start                         0x00813feb   Thumb Code     4  light_effect_app.o(.text)
    light_prov_complete                      0x00813fef   Thumb Code    34  light_effect_app.o(.text)
    light_gap_state_disconnect               0x00814011   Thumb Code    10  light_effect_app.o(.text)
    light_gap_state_connected                0x0081401b   Thumb Code     8  light_effect_app.o(.text)
    light_dfu_client_start                   0x00814023   Thumb Code    20  light_effect_app.o(.text)
    light_dfu_client_end                     0x00814037   Thumb Code    70  light_effect_app.o(.text)
    light_dfu_client_fail                    0x0081407d   Thumb Code    70  light_effect_app.o(.text)
    light_dfu_server_start                   0x008140c3   Thumb Code    20  light_effect_app.o(.text)
    light_dfu_server_end                     0x008140d7   Thumb Code    70  light_effect_app.o(.text)
    light_dfu_server_fail                    0x0081411d   Thumb Code    10  light_effect_app.o(.text)
    light_state_store                        0x00814141   Thumb Code    72  light_storage_app.o(.text)
    light_user_data_store                    0x00814189   Thumb Code     4  light_storage_app.o(.text)
    light_flash_restore                      0x0081418d   Thumb Code    68  light_storage_app.o(.text)
    hsl_2_rgb                                0x0081424d   Thumb Code   334  light_cwrgb_app.o(.text)
    rgb_2_hsl                                0x0081439b   Thumb Code   274  light_cwrgb_app.o(.text)
    temperature_to_lightness                 0x008144ad   Thumb Code     2  light_cwrgb_app.o(.text)
    lightness_to_temperature                 0x008144af   Thumb Code    20  light_cwrgb_app.o(.text)
    board_plug_io_init                       0x008144c3   Thumb Code    90  light_cwrgb_app.o(.text)
    plug_on_off_pin_cmd                      0x0081451d   Thumb Code    50  light_cwrgb_app.o(.text)
    plug_io_on_off_pin_enter_dlps_config     0x0081454f   Thumb Code    44  light_cwrgb_app.o(.text)
    plug_io_on_off_pin_exit_dlps_config      0x0081457b   Thumb Code    44  light_cwrgb_app.o(.text)
    light_cwrgb_driver_init                  0x008145a7   Thumb Code    24  light_cwrgb_app.o(.text)
    light_cwrgb_enter_dlps                   0x008145bf   Thumb Code    24  light_cwrgb_app.o(.text)
    light_set_cold_lightness                 0x008145d7   Thumb Code     8  light_cwrgb_app.o(.text)
    light_lighten_cold                       0x008145df   Thumb Code     8  light_cwrgb_app.o(.text)
    light_set_warm_lightness                 0x008145e7   Thumb Code    10  light_cwrgb_app.o(.text)
    light_lighten_warm                       0x008145f1   Thumb Code    10  light_cwrgb_app.o(.text)
    light_set_cw_lightness                   0x008145fb   Thumb Code    26  light_cwrgb_app.o(.text)
    light_lighten_cw                         0x00814615   Thumb Code    26  light_cwrgb_app.o(.text)
    light_get_cw_lightness                   0x0081462f   Thumb Code    16  light_cwrgb_app.o(.text)
    light_set_red_lightness                  0x0081463f   Thumb Code    54  light_cwrgb_app.o(.text)
    light_lighten_red                        0x00814675   Thumb Code     8  light_cwrgb_app.o(.text)
    light_set_green_lightness                0x0081467d   Thumb Code    10  light_cwrgb_app.o(.text)
    light_lighten_green                      0x00814687   Thumb Code    10  light_cwrgb_app.o(.text)
    light_set_blue_lightness                 0x00814691   Thumb Code    10  light_cwrgb_app.o(.text)
    light_lighten_blue                       0x0081469b   Thumb Code    10  light_cwrgb_app.o(.text)
    light_set_rgb_lightness                  0x008146a5   Thumb Code    38  light_cwrgb_app.o(.text)
    light_lighten_rgb                        0x008146cb   Thumb Code    38  light_cwrgb_app.o(.text)
    light_get_rgb_lightness                  0x008146f1   Thumb Code    38  light_cwrgb_app.o(.text)
    light_cw_turn_off                        0x00814717   Thumb Code    26  light_cwrgb_app.o(.text)
    light_cw_turn_on                         0x00814731   Thumb Code    64  light_cwrgb_app.o(.text)
    light_rgb_turn_off                       0x00814771   Thumb Code    34  light_cwrgb_app.o(.text)
    light_rgb_turn_on                        0x00814793   Thumb Code    88  light_cwrgb_app.o(.text)
    light_cwrgb_turn_off                     0x008147eb   Thumb Code    28  light_cwrgb_app.o(.text)
    light_cwrgb_turn_on                      0x00814807   Thumb Code    12  light_cwrgb_app.o(.text)
    light_blink_cold                         0x00814813   Thumb Code    14  light_cwrgb_app.o(.text)
    light_blink_warm                         0x00814821   Thumb Code    14  light_cwrgb_app.o(.text)
    light_blink_red                          0x0081482f   Thumb Code    12  light_cwrgb_app.o(.text)
    light_blink_green                        0x0081483b   Thumb Code    14  light_cwrgb_app.o(.text)
    light_blink_blue                         0x00814849   Thumb Code    14  light_cwrgb_app.o(.text)
    light_set_ctl                            0x00814857   Thumb Code    40  light_cwrgb_app.o(.text)
    light_get_ctl                            0x0081487f   Thumb Code    36  light_cwrgb_app.o(.text)
    light_set_hsl                            0x008148a3   Thumb Code    66  light_cwrgb_app.o(.text)
    light_get_hsl                            0x008148e5   Thumb Code    56  light_cwrgb_app.o(.text)
    light_get_cold                           0x0081491d   Thumb Code     6  light_cwrgb_app.o(.text)
    light_get_warm                           0x00814923   Thumb Code     6  light_cwrgb_app.o(.text)
    light_get_red                            0x00814929   Thumb Code     4  light_cwrgb_app.o(.text)
    light_get_green                          0x0081492d   Thumb Code     6  light_cwrgb_app.o(.text)
    light_get_blue                           0x00814933   Thumb Code     6  light_cwrgb_app.o(.text)
    light_set_cwrgb                          0x00814939   Thumb Code    16  light_cwrgb_app.o(.text)
    light_get_cwrgb                          0x00814949   Thumb Code    70  light_cwrgb_app.o(.text)
    app_send_msg_to_apptask                  0x008149b5   Thumb Code    74  app_task.o(.text)
    app_send_uart_msg                        0x008149ff   Thumb Code    62  app_task.o(.text)
    app_main_task                            0x00814a3d   Thumb Code   180  app_task.o(.text)
    app_task_init                            0x00814af1   Thumb Code    28  app_task.o(.text)
    mesh_stack_init                          0x00814b25   Thumb Code   338  main.o(.text)
    app_le_gap_init                          0x00814c77   Thumb Code   144  main.o(.text)
    app_le_profile_init                      0x00814d07   Thumb Code    58  main.o(.text)
    board_init                               0x00814d41   Thumb Code    18  main.o(.text)
    driver_init                              0x00814d53   Thumb Code     2  main.o(.text)
    app_enter_dlps_config                    0x00814d55   Thumb Code    24  main.o(.text)
    app_exit_dlps_config                     0x00814d6d   Thumb Code    14  main.o(.text)
    app_dlps_check_cb                        0x00814d7b   Thumb Code     4  main.o(.text)
    pwr_mgr_init                             0x00814d7f   Thumb Code    56  main.o(.text)
    task_init                                0x00814db7   Thumb Code     4  main.o(.text)
    main                                     0x00814dbb   Thumb Code    44  main.o(.text)
    dcd_prd_set                              0x00814e89   Thumb Code   116  strip_app.o(.text)
    dcd_tim_set                              0x00814efd   Thumb Code   182  strip_app.o(.text)
    ali_server_receive                       0x00814fb3   Thumb Code   976  strip_app.o(.text)
    strip_server_models_init                 0x00815383   Thumb Code    92  strip_app.o(.text)
    strip_server_models_sub                  0x008153df   Thumb Code    64  strip_app.o(.text)
    GPIO20_Handler                           0x0081541f   Thumb Code   136  strip_app.o(.text)
    handle_pub_evt                           0x008154a7   Thumb Code    38  strip_app.o(.text)
    send_update_request                      0x008154cd   Thumb Code    48  strip_app.o(.text)
    clear_timer                              0x008154fd   Thumb Code    68  strip_app.o(.text)
    get_prd_unix_time                        0x00815541   Thumb Code     8  strip_app.o(.text)
    get_prd_schedule                         0x00815549   Thumb Code     8  strip_app.o(.text)
    get_prd_state                            0x00815551   Thumb Code     8  strip_app.o(.text)
    is_prd_exist                             0x00815559   Thumb Code     8  strip_app.o(.text)
    mp_cmd_table_length                      0x008155ef   Thumb Code    34  mp_cmd.o(.text)
    user_data_contains_ali_data              0x00815621   Thumb Code    36  user_data.o(.text)
    user_data_read_ali_product_id            0x00815645   Thumb Code    26  user_data.o(.text)
    user_data_read_ali_secret_key            0x0081565f   Thumb Code    22  user_data.o(.text)
    user_data_write_ali_data                 0x00815675   Thumb Code    74  user_data.o(.text)
    vTimerUpdateCallback                     0x008156c9   Thumb Code    12  strip_timer.o(.text)
    vTimerReportCallback                     0x008156d5   Thumb Code    24  strip_timer.o(.text)
    swTimerInit                              0x008156ed   Thumb Code   108  strip_timer.o(.text)
    is_leap_year                             0x00815759   Thumb Code    38  strip_timer.o(.text)
    check_timer_valid                        0x0081577f   Thumb Code   100  strip_timer.o(.text)
    RTC_init                                 0x008157e3   Thumb Code    60  strip_timer.o(.text)
    unix2UTC                                 0x0081581f   Thumb Code   226  strip_timer.o(.text)
    timer_list_init                          0x00815901   Thumb Code    16  strip_timer.o(.text)
    timer_sort                               0x00815911   Thumb Code   120  strip_timer.o(.text)
    is_in_list                               0x00815989   Thumb Code   152  strip_timer.o(.text)
    remove_timer                             0x00815a21   Thumb Code    42  strip_timer.o(.text)
    RTC_Handler                              0x00815a4b   Thumb Code   198  strip_timer.o(.text)
    timer_data_init                          0x00815b45   Thumb Code    18  main_app.o(.text)
    app_handle_authen_state_evt              0x00815b57   Thumb Code    80  main_app.o(.text)
    app_handle_conn_param_update_evt         0x00815ba7   Thumb Code   126  main_app.o(.text)
    app_handle_conn_mtu_info_evt             0x00815c25   Thumb Code    20  main_app.o(.text)
    app_handle_conn_state_evt                0x00815c39   Thumb Code   274  main_app.o(.text)
    app_handle_dev_state_evt                 0x00815d4b   Thumb Code   130  main_app.o(.text)
    app_handle_gap_msg                       0x00815dcd   Thumb Code   306  main_app.o(.text)
    app_handle_io_msg                        0x00815eff   Thumb Code   448  main_app.o(.text)
    app_gap_callback                         0x008160bf   Thumb Code   334  main_app.o(.text)
    app_client_callback                      0x0081620d   Thumb Code   152  main_app.o(.text)
    app_profile_callback                     0x0081647d   Thumb Code   156  main_app.o(.text)
    prov_cb                                  0x00816519   Thumb Code   430  main_app.o(.text)
    fn_cb                                    0x008166c7   Thumb Code    22  main_app.o(.text)
    unlock_flash_all                         0x008167ad   Thumb Code    48  silent_dfu_flash.o(.text)
    lock_flash                               0x008167dd   Thumb Code    14  silent_dfu_flash.o(.text)
    flash_erase_sector                       0x008167eb   Thumb Code    32  silent_dfu_flash.o(.text)
    sil_dfu_flash_erase                      0x0081680b   Thumb Code    42  silent_dfu_flash.o(.text)
    get_temp_ota_bank_size_by_img_id         0x00816835   Thumb Code   158  silent_dfu_flash.o(.text)
    check_dfu_update_image_length            0x008168d3   Thumb Code   126  silent_dfu_flash.o(.text)
    sil_dfu_update                           0x00816951   Thumb Code   268  silent_dfu_flash.o(.text)
    silent_dfu_reset                         0x00816a5d   Thumb Code    26  silent_dfu_flash.o(.text)
    silent_dfu_check_checksum                0x00816a77   Thumb Code   140  silent_dfu_flash.o(.text)
    dfu_flash_check_appdefine_blank          0x00816b03   Thumb Code    88  silent_dfu_flash.o(.text)
    light_stop                               0x00816d41   Thumb Code    56  light_controller_app.o(.text)
    light_set_lightness_linear               0x00816d79   Thumb Code    76  light_controller_app.o(.text)
    light_blink                              0x00816dc5   Thumb Code   100  light_controller_app.o(.text)
    light_breath                             0x00816e29   Thumb Code   134  light_controller_app.o(.text)
    is_light_controller_busy                 0x00816eaf   Thumb Code    32  light_controller_app.o(.text)
    is_light_busy                            0x00816ecf   Thumb Code    42  light_controller_app.o(.text)
    light_controller_init                    0x00816ef9   Thumb Code    66  light_controller_app.o(.text)
    light_controller_deinit                  0x00816f3b   Thumb Code    96  light_controller_app.o(.text)
    unprov_timer_start                       0x00816fe3   Thumb Code    38  light_swtimer.o(.text)
    unprov_timer_init                        0x00817009   Thumb Code    32  light_swtimer.o(.text)
    unprov_timer_get_status                  0x00817029   Thumb Code    24  light_swtimer.o(.text)
    unprov_timer_stop                        0x00817041   Thumb Code    46  light_swtimer.o(.text)
    change_scan_param_timer_start            0x00817085   Thumb Code    26  light_swtimer.o(.text)
    change_scan_param_timer_init             0x0081709f   Thumb Code    34  light_swtimer.o(.text)
    light_handle_sw_timer_msg                0x008170c1   Thumb Code    88  light_swtimer.o(.text)
    light_dlps_ctrl_init                     0x00817155   Thumb Code     8  light_dlps_ctrl.o(.text)
    light_io_ctrl_dlps                       0x0081715d   Thumb Code    20  light_dlps_ctrl.o(.text)
    light_unprov_ctrl_dlps                   0x00817171   Thumb Code    20  light_dlps_ctrl.o(.text)
    light_check_dlps                         0x00817185   Thumb Code    14  light_dlps_ctrl.o(.text)
    gap_lib_handle_btif_msg                  0x00817199   Thumb Code   100  gap_lib.o(.text)
    gap_lib_init                             0x008171fd   Thumb Code    78  gap_lib.o(.text)
    gap_sw_reset_req                         0x00817255   Thumb Code    62  gap_lib_patch.o(.text)
    le_handle_sw_reset_rsp                   0x00817293   Thumb Code    42  gap_lib_patch.o(.text)
    le_check_privacy_bond                    0x008172bd   Thumb Code   106  gap_lib_patch.o(.text)
    le_bond_just_work_confirm                0x00817327   Thumb Code    36  gap_lib_patch.o(.text)
    le_gen_rand_addr                         0x0081734b   Thumb Code   168  gap_lib_patch.o(.text)
    patch_le_link_disconnected               0x008173f3   Thumb Code   116  gap_lib_patch.o(.text)
    patch_le_link_handle_disconnect_rsp      0x00817467   Thumb Code    24  gap_lib_patch.o(.text)
    patch_le_link_handle_disconnect_ind      0x0081747f   Thumb Code    22  gap_lib_patch.o(.text)
    le_bond_get_sec_level                    0x00817495   Thumb Code    72  gap_lib_patch.o(.text)
    le_get_dev_bond_info_len                 0x008174dd   Thumb Code     6  gap_lib_patch.o(.text)
    le_get_dev_bond_info                     0x008174e3   Thumb Code   132  gap_lib_patch.o(.text)
    le_key_entry_init                        0x00817567   Thumb Code   332  gap_lib_patch.o(.text)
    le_set_dev_bond_info                     0x008176b3   Thumb Code   214  gap_lib_patch.o(.text)
    plt_os_queue_create                      0x0081779d   Thumb Code    22  platform_os.o(.text)
    plt_mutex_create                         0x008177b3   Thumb Code    16  platform_os.o(.text)
    plt_timer_create                         0x008177c3   Thumb Code    32  platform_os.o(.text)
    plt_timer_is_active                      0x008177e3   Thumb Code    26  platform_os.o(.text)
    plt_timer_get_id                         0x008177fd   Thumb Code    16  platform_os.o(.text)
    plt_delay_us                             0x0081780d   Thumb Code    34  platform_os.o(.text)
    plt_time_diff                            0x0081782f   Thumb Code    24  platform_os.o(.text)
    plt_swap1                                0x00817851   Thumb Code    40  platform_misc.o(.text)
    plt_swap2                                0x00817879   Thumb Code    34  platform_misc.o(.text)
    plt_swap                                 0x0081789b   Thumb Code    96  platform_misc.o(.text)
    plt_srand                                0x008178fb   Thumb Code    22  platform_misc.o(.text)
    plt_rand                                 0x00817911   Thumb Code    44  platform_misc.o(.text)
    plt_bit_pool_get                         0x0081793d   Thumb Code    20  platform_misc.o(.text)
    plt_bit_pool_set                         0x00817951   Thumb Code    28  platform_misc.o(.text)
    plt_bit_pool_count                       0x0081796d   Thumb Code    32  platform_misc.o(.text)
    plt_log2                                 0x0081798d   Thumb Code    22  platform_misc.o(.text)
    plt_exp2                                 0x008179a3   Thumb Code    18  platform_misc.o(.text)
    plt_hex_to_bin                           0x008179b5   Thumb Code   182  platform_misc.o(.text)
    diag_level_set                           0x00817a79   Thumb Code    20  platform_diagnose.o(.text)
    AES128_ECB_encrypt                       0x00818101   Thumb Code    36  aes.o(.text)
    AES128_ECB_decrypt                       0x00818125   Thumb Code    36  aes.o(.text)
    AES128_CBC_encrypt_buffer                0x00818149   Thumb Code   128  aes.o(.text)
    AES128_CBC_decrypt_buffer                0x008181c9   Thumb Code   126  aes.o(.text)
    data_uart_send_string                    0x0081828d   Thumb Code    26  data_uart.o(.text)
    UART0_Handler                            0x00818473   Thumb Code   106  data_uart.o(.text)
    data_uart_init                           0x008184dd   Thumb Code   130  data_uart.o(.text)
    data_uart_baudrate                       0x0081855f   Thumb Code    88  data_uart.o(.text)
    data_uart_debug_switch                   0x008185b7   Thumb Code     6  data_uart.o(.text)
    data_uart_debug                          0x008185bd   Thumb Code    28  data_uart.o(.text)
    data_uart_dump                           0x008185d9   Thumb Code    82  data_uart.o(.text)
    gap_sched_task_get                       0x0081867d   Thumb Code    96  gap_scheduler.o(.text)
    gap_sched_task_available                 0x008186dd   Thumb Code    40  gap_scheduler.o(.text)
    gap_sched_task_free                      0x00818705   Thumb Code    56  gap_scheduler.o(.text)
    gap_sched_timer_cb                       0x0081873d   Thumb Code    28  gap_scheduler.o(.text)
    gap_sched_timer_start                    0x00818759   Thumb Code    28  gap_scheduler.o(.text)
    gap_sched_timer_stop                     0x00818775   Thumb Code    60  gap_scheduler.o(.text)
    gap_sched_query                          0x008187b1   Thumb Code    66  gap_scheduler.o(.text)
    gap_sched_adv                            0x00818839   Thumb Code   106  gap_scheduler.o(.text)
    gap_sched_run                            0x008188a3   Thumb Code   580  gap_scheduler.o(.text)
    gap_sched_timer_timeout                  0x00818ae7   Thumb Code     4  gap_scheduler.o(.text)
    gap_sched_scan                           0x00818aeb   Thumb Code    80  gap_scheduler.o(.text)
    gap_sched_try                            0x00818b3b   Thumb Code   228  gap_scheduler.o(.text)
    gap_sched_quit                           0x00818c1f   Thumb Code   178  gap_scheduler.o(.text)
    gap_sched_disc_cb_reg                    0x00818cd1   Thumb Code    42  gap_scheduler.o(.text)
    gap_sched_disc_cb_free                   0x00818cfb   Thumb Code    24  gap_scheduler.o(.text)
    gap_sched_handle_bt_status_msg           0x00818d13   Thumb Code   286  gap_scheduler.o(.text)
    gap_sched_handle_adv_report              0x00818e31   Thumb Code    40  gap_scheduler.o(.text)
    gap_sched_init_gap_params                0x00818e59   Thumb Code   288  gap_scheduler.o(.text)
    gap_sched_link_check                     0x00818f79   Thumb Code    36  gap_scheduler.o(.text)
    gap_sched_params_set                     0x00818f9d   Thumb Code   288  gap_scheduler.o(.text)
    gap_sched_params_get                     0x008190bd   Thumb Code    28  gap_scheduler.o(.text)
    gap_sched_cfg                            0x008190d9   Thumb Code     8  gap_scheduler.o(.text)
    gap_sched_init                           0x008190e1   Thumb Code   134  gap_scheduler.o(.text)
    gap_sched_deinit                         0x00819167   Thumb Code    40  gap_scheduler.o(.text)
    gap_sched_adv_params_set_done            0x0081918f   Thumb Code    10  gap_scheduler.o(.text)
    gap_sched_adv_done                       0x00819199   Thumb Code   120  gap_scheduler.o(.text)
    access_cfg                               0x00819225   Thumb Code   234  mesh_access.o(.text)
    access_send                              0x0081930f   Thumb Code   214  mesh_access.o(.text)
    access_dispatch                          0x008193e5   Thumb Code   294  mesh_access.o(.text)
    access_set_dispatch_preprocess           0x0081950b   Thumb Code     6  mesh_access.o(.text)
    bearer_gatt_send                         0x0081952d   Thumb Code    38  mesh_bearer.o(.text)
    bearer_send_mesh_msg                     0x00819553   Thumb Code   460  mesh_bearer.o(.text)
    bearer_send                              0x0081971f   Thumb Code   172  mesh_bearer.o(.text)
    bearer_loopback_receive                  0x008197cb   Thumb Code    26  mesh_bearer.o(.text)
    bearer_adv_receive                       0x008197e5   Thumb Code   122  mesh_bearer.o(.text)
    bearer_adv_get                           0x0081985f   Thumb Code    12  mesh_bearer.o(.text)
    bearer_adv_set                           0x0081986b   Thumb Code    14  mesh_bearer.o(.text)
    bearer_other_reg                         0x00819879   Thumb Code     6  mesh_bearer.o(.text)
    bearer_other_receive                     0x0081987f   Thumb Code    14  mesh_bearer.o(.text)
    bearer_init                              0x0081988d   Thumb Code    14  mesh_bearer.o(.text)
    beacon_uri_hash_gen                      0x008198b9   Thumb Code    32  mesh_beacon.o(.text)
    beacon_udb_send                          0x008198d9   Thumb Code   160  mesh_beacon.o(.text)
    beacon_auth_snb                          0x00819979   Thumb Code    22  mesh_beacon.o(.text)
    beacon_snb_gen                           0x0081998f   Thumb Code   142  mesh_beacon.o(.text)
    beacon_snb_send                          0x00819a1d   Thumb Code   156  mesh_beacon.o(.text)
    beacon_snb_send_via_proxy                0x00819ab9   Thumb Code    88  mesh_beacon.o(.text)
    beacon_send                              0x00819b11   Thumb Code    14  mesh_beacon.o(.text)
    beacon_start                             0x00819b5f   Thumb Code   126  mesh_beacon.o(.text)
    beacon_stop                              0x00819bdd   Thumb Code    48  mesh_beacon.o(.text)
    beacon_handle_snb                        0x00819c0d   Thumb Code   442  mesh_beacon.o(.text)
    beacon_filter_snb                        0x00819dc7   Thumb Code     4  mesh_beacon.o(.text)
    beacon_filter                            0x00819dcb   Thumb Code    20  mesh_beacon.o(.text)
    beacon_receive                           0x00819ddf   Thumb Code    44  mesh_beacon.o(.text)
    beacon_deinit                            0x00819e0b   Thumb Code    16  mesh_beacon.o(.text)
    beacon_cfg                               0x00819e1b   Thumb Code    86  mesh_beacon.o(.text)
    mesh_inner_msg_send                      0x00819e85   Thumb Code    82  mesh_common.o(.text)
    mesh_inner_msg_handle                    0x00819ed7   Thumb Code   326  mesh_common.o(.text)
    mesh_init                                0x0081a01d   Thumb Code    30  mesh_common.o(.text)
    mesh_deinit                              0x0081a03b   Thumb Code    50  mesh_common.o(.text)
    mesh_start                               0x0081a06d   Thumb Code    20  mesh_common.o(.text)
    mesh_run                                 0x0081a081   Thumb Code   140  mesh_common.o(.text)
    mesh_reboot_timer_cb                     0x0081a10d   Thumb Code    16  mesh_common.o(.text)
    mesh_reboot                              0x0081a11d   Thumb Code    88  mesh_common.o(.text)
    device_info_cb_reg                       0x0081a175   Thumb Code     6  mesh_common.o(.text)
    mesh_tick_timer_start                    0x0081a1b1   Thumb Code    68  mesh_common.o(.text)
    mesh_tick_timer_stop                     0x0081a1f5   Thumb Code    24  mesh_common.o(.text)
    mesh_tick_timer_is_running               0x0081a20d   Thumb Code    12  mesh_common.o(.text)
    mesh_model_delay_execution_init          0x0081a219   Thumb Code     6  mesh_common.o(.text)
    mesh_version_check                       0x0081a21f   Thumb Code    24  mesh_common.o(.text)
    prov_ecc_key_gen                         0x0081a2bd   Thumb Code   294  mesh_provision.o(.text)
    prov_ecc_key_validate                    0x0081a3e3   Thumb Code    54  mesh_provision.o(.text)
    prov_ecdh_secret_gen                     0x0081a419   Thumb Code   278  mesh_provision.o(.text)
    prov_conf_keys_gen                       0x0081a52f   Thumb Code   256  mesh_provision.o(.text)
    prov_conf_key_get                        0x0081a62f   Thumb Code    24  mesh_provision.o(.text)
    prov_confirmation_gen                    0x0081a647   Thumb Code   190  mesh_provision.o(.text)
    prov_data_keys_gen                       0x0081a705   Thumb Code   176  mesh_provision.o(.text)
    prov_data_crypto                         0x0081a7b5   Thumb Code   440  mesh_provision.o(.text)
    prov_timeout_cb                          0x0081a96d   Thumb Code    40  mesh_provision.o(.text)
    prov_handle_timeout                      0x0081a995   Thumb Code    58  mesh_provision.o(.text)
    prov_timer_stop                          0x0081a9cf   Thumb Code    18  mesh_provision.o(.text)
    prov_handle_disconnect                   0x0081a9e1   Thumb Code    76  mesh_provision.o(.text)
    prov_timer_restart                       0x0081aa2d   Thumb Code    18  mesh_provision.o(.text)
    prov_params_get                          0x0081aa3f   Thumb Code    52  mesh_provision.o(.text)
    prov_params_set                          0x0081aa73   Thumb Code   150  mesh_provision.o(.text)
    prov_allocate                            0x0081ab09   Thumb Code   108  mesh_provision.o(.text)
    prov_free                                0x0081ab75   Thumb Code    34  mesh_provision.o(.text)
    prov_cap_check                           0x0081ab97   Thumb Code   120  mesh_provision.o(.text)
    prov_start_check                         0x0081ac0f   Thumb Code   182  mesh_provision.o(.text)
    prov_auth_value_type_get                 0x0081acc5   Thumb Code    44  mesh_provision.o(.text)
    mesh_service_adv_send                    0x0081ad0d   Thumb Code   384  mesh_service.o(.text)
    mesh_service_adv_start                   0x0081aec3   Thumb Code   146  mesh_service.o(.text)
    mesh_service_adv_stop                    0x0081af55   Thumb Code    50  mesh_service.o(.text)
    mesh_service_adv_receive                 0x0081af87   Thumb Code   116  mesh_service.o(.text)
    mesh_service_identity_adv_send           0x0081affb   Thumb Code   178  mesh_service.o(.text)
    mesh_service_identity_adv_trigger        0x0081b0ad   Thumb Code    48  mesh_service.o(.text)
    mesh_service_identity_adv_rr             0x0081b0dd   Thumb Code   168  mesh_service.o(.text)
    mesh_service_identity_adv_start          0x0081b185   Thumb Code    88  mesh_service.o(.text)
    mesh_service_init                        0x0081b1dd   Thumb Code    44  mesh_service.o(.text)
    mesh_service_deinit                      0x0081b209   Thumb Code    32  mesh_service.o(.text)
    mesh_service_adv_cfg                     0x0081b229   Thumb Code    98  mesh_service.o(.text)
    device_uuid_set                          0x0081b2a9   Thumb Code    10  mesh_node.o(.text)
    mesh_addr_type_classify                  0x0081b2b3   Thumb Code    28  mesh_node.o(.text)
    fixed_group_addr_check_by_model          0x0081b2cf   Thumb Code    84  mesh_node.o(.text)
    fixed_group_addr_check_by_node           0x0081b323   Thumb Code    78  mesh_node.o(.text)
    vir_addr_get_index                       0x0081b371   Thumb Code    62  mesh_node.o(.text)
    vir_addr_get                             0x0081b3af   Thumb Code    28  mesh_node.o(.text)
    vir_addr_available                       0x0081b3cb   Thumb Code    40  mesh_node.o(.text)
    vir_addr_add                             0x0081b3f3   Thumb Code   126  mesh_node.o(.text)
    vir_addr_delete                          0x0081b471   Thumb Code    76  mesh_node.o(.text)
    dev_key_set                              0x0081b4bd   Thumb Code    70  mesh_node.o(.text)
    dev_key_get                              0x0081b503   Thumb Code    36  mesh_node.o(.text)
    dev_key_get_available_idx                0x0081b527   Thumb Code    56  mesh_node.o(.text)
    dev_key_find                             0x0081b55f   Thumb Code    70  mesh_node.o(.text)
    dev_key_add                              0x0081b5a5   Thumb Code   118  mesh_node.o(.text)
    dev_key_delete                           0x0081b61b   Thumb Code    28  mesh_node.o(.text)
    key_state_to_tx_loop                     0x0081b637   Thumb Code    28  mesh_node.o(.text)
    key_state_to_new_loop                    0x0081b653   Thumb Code    28  mesh_node.o(.text)
    key_state_to_frnd_key_loop               0x0081b66f   Thumb Code    34  mesh_node.o(.text)
    key_state_to_key_refresh_flag            0x0081b691   Thumb Code    16  mesh_node.o(.text)
    key_state_to_key_refresh_phase           0x0081b6a1   Thumb Code    28  mesh_node.o(.text)
    net_key_index_to_global                  0x0081b6bd   Thumb Code    18  mesh_node.o(.text)
    net_key_valid_num                        0x0081b6cf   Thumb Code    38  mesh_node.o(.text)
    net_key_index_from_global                0x0081b6f5   Thumb Code    46  mesh_node.o(.text)
    net_key_update                           0x0081b723   Thumb Code   328  mesh_node.o(.text)
    net_key_refresh                          0x0081b86b   Thumb Code    92  mesh_node.o(.text)
    net_key_refresh_check                    0x0081b8c7   Thumb Code    58  mesh_node.o(.text)
    net_key_available                        0x0081b901   Thumb Code    32  mesh_node.o(.text)
    net_key_add                              0x0081b921   Thumb Code    48  mesh_node.o(.text)
    net_key_delete                           0x0081b951   Thumb Code    64  mesh_node.o(.text)
    net_key_dump                             0x0081b991   Thumb Code    52  mesh_node.o(.text)
    net_key_primary_subnet_check             0x0081b9c5   Thumb Code    48  mesh_node.o(.text)
    net_key_is_frnd_key                      0x0081b9f5   Thumb Code    20  mesh_node.o(.text)
    frnd_key_update                          0x0081ba09   Thumb Code   336  mesh_node.o(.text)
    frnd_key_check                           0x0081bb59   Thumb Code    20  mesh_node.o(.text)
    app_key_index_to_global                  0x0081bb6d   Thumb Code    14  mesh_node.o(.text)
    app_key_index_from_global                0x0081bb7b   Thumb Code    44  mesh_node.o(.text)
    app_key_update                           0x0081bba7   Thumb Code   264  mesh_node.o(.text)
    app_key_refresh                          0x0081bcaf   Thumb Code    80  mesh_node.o(.text)
    app_key_add                              0x0081bcff   Thumb Code    50  mesh_node.o(.text)
    app_key_delete                           0x0081bd31   Thumb Code    64  mesh_node.o(.text)
    app_key_dump                             0x0081bd71   Thumb Code    66  mesh_node.o(.text)
    mesh_key_refresh                         0x0081bdb3   Thumb Code   122  mesh_node.o(.text)
    mesh_element_create                      0x0081be2d   Thumb Code    90  mesh_node.o(.text)
    mesh_element_get                         0x0081be87   Thumb Code    32  mesh_node.o(.text)
    mesh_element_get_by_addr                 0x0081bea7   Thumb Code    50  mesh_node.o(.text)
    mesh_model_num                           0x0081bed9   Thumb Code    22  mesh_node.o(.text)
    mesh_model_get                           0x0081beef   Thumb Code    38  mesh_node.o(.text)
    mesh_model_get_by_model_id               0x0081bf15   Thumb Code    36  mesh_node.o(.text)
    mesh_model_get_by_num                    0x0081bf39   Thumb Code    38  mesh_node.o(.text)
    mesh_model_info_get_by_model_id          0x0081bf5f   Thumb Code    26  mesh_node.o(.text)
    mesh_model_get_index                     0x0081bf79   Thumb Code     4  mesh_node.o(.text)
    mesh_model_handle_pub_timeout            0x0081bf7d   Thumb Code   136  mesh_node.o(.text)
    mesh_model_pub_timeout_cb                0x0081c005   Thumb Code    22  mesh_node.o(.text)
    mesh_model_pub_start                     0x0081c01b   Thumb Code   154  mesh_node.o(.text)
    mesh_model_pub_period_get                0x0081c0b5   Thumb Code    18  mesh_node.o(.text)
    mesh_model_pub_check                     0x0081c0c7   Thumb Code    20  mesh_node.o(.text)
    mesh_model_pub_params_set                0x0081c0db   Thumb Code     8  mesh_node.o(.text)
    mesh_model_pub_params_get                0x0081c0e3   Thumb Code    12  mesh_node.o(.text)
    mesh_model_sub_check                     0x0081c0ef   Thumb Code    78  mesh_node.o(.text)
    mesh_model_sub_check_internal            0x0081c13d   Thumb Code    50  mesh_node.o(.text)
    mesh_model_sub_vir_addr_available        0x0081c16f   Thumb Code    66  mesh_node.o(.text)
    mesh_model_sub                           0x0081c1b1   Thumb Code   108  mesh_node.o(.text)
    mesh_model_unsub                         0x0081c21d   Thumb Code    60  mesh_node.o(.text)
    mesh_model_sub_all                       0x0081c259   Thumb Code    50  mesh_node.o(.text)
    mesh_model_sub_dump                      0x0081c28b   Thumb Code    94  mesh_node.o(.text)
    mesh_model_sub_load                      0x0081c2e9   Thumb Code    34  mesh_node.o(.text)
    mesh_model_sub_clear                     0x0081c30b   Thumb Code    56  mesh_node.o(.text)
    mesh_model_get_available_key             0x0081c343   Thumb Code    50  mesh_node.o(.text)
    mesh_model_bind_one                      0x0081c375   Thumb Code     8  mesh_node.o(.text)
    mesh_model_bind_all                      0x0081c37d   Thumb Code    26  mesh_node.o(.text)
    mesh_model_bind                          0x0081c397   Thumb Code    50  mesh_node.o(.text)
    mesh_model_bind_dump                     0x0081c3c9   Thumb Code    76  mesh_node.o(.text)
    mesh_model_reg                           0x0081c415   Thumb Code   242  mesh_node.o(.text)
    compo_data_page0_gen                     0x0081c507   Thumb Code   526  mesh_node.o(.text)
    mesh_seq_set                             0x0081c715   Thumb Code    10  mesh_node.o(.text)
    mesh_seq_clear                           0x0081c71f   Thumb Code    50  mesh_node.o(.text)
    iv_index_update                          0x0081c751   Thumb Code   194  mesh_node.o(.text)
    mesh_seq_use                             0x0081c813   Thumb Code    94  mesh_node.o(.text)
    iv_index_get                             0x0081c871   Thumb Code     6  mesh_node.o(.text)
    iv_index_set                             0x0081c877   Thumb Code     6  mesh_node.o(.text)
    iv_index_update_try                      0x0081c87d   Thumb Code   212  mesh_node.o(.text)
    iv_index_transit_to_iv_update            0x0081c951   Thumb Code    20  mesh_node.o(.text)
    iv_index_handle_timeout                  0x0081c965   Thumb Code   100  mesh_node.o(.text)
    iv_index_transit_to_normal               0x0081c9c9   Thumb Code    10  mesh_node.o(.text)
    iv_index_test_mode_set                   0x0081c9d3   Thumb Code    14  mesh_node.o(.text)
    iv_index_timeout_cb                      0x0081c9e1   Thumb Code    40  mesh_node.o(.text)
    iv_index_timer_start                     0x0081ca09   Thumb Code    58  mesh_node.o(.text)
    iv_index_timer_stop                      0x0081ca43   Thumb Code    24  mesh_node.o(.text)
    attn_timer_set                           0x0081ca5b   Thumb Code    24  mesh_node.o(.text)
    attn_timer_get                           0x0081ca73   Thumb Code    38  mesh_node.o(.text)
    attn_timeout_cb                          0x0081ca99   Thumb Code    16  mesh_node.o(.text)
    attn_timer_start                         0x0081caa9   Thumb Code    96  mesh_node.o(.text)
    attn_timer_stop                          0x0081cb09   Thumb Code    18  mesh_node.o(.text)
    attn_timer_handle_timeout                0x0081cb1b   Thumb Code   100  mesh_node.o(.text)
    mesh_node_sub_check                      0x0081cb7f   Thumb Code    56  mesh_node.o(.text)
    mesh_node_cfg                            0x0081cbb7   Thumb Code   350  mesh_node.o(.text)
    mesh_node_init                           0x0081cd15   Thumb Code    24  mesh_node.o(.text)
    mesh_node_clear                          0x0081cd2d   Thumb Code     4  mesh_node.o(.text)
    mesh_node_clean                          0x0081cd31   Thumb Code   232  mesh_node.o(.text)
    mesh_node_reset                          0x0081ce19   Thumb Code    12  mesh_node.o(.text)
    mesh_node_restore                        0x0081ce25   Thumb Code    82  mesh_node.o(.text)
    mesh_node_deinit                         0x0081ce77   Thumb Code   186  mesh_node.o(.text)
    mesh_msg_cfg                             0x0081cf31   Thumb Code    18  mesh_node.o(.text)
    frnd_offer                               0x0081cf55   Thumb Code   164  friendship_fn.o(.text)
    frnd_clear_conf                          0x0081d0b1   Thumb Code   118  friendship_fn.o(.text)
    frnd_sub_list_conf                       0x0081d127   Thumb Code   136  friendship_fn.o(.text)
    frnd_update                              0x0081d1af   Thumb Code   220  friendship_fn.o(.text)
    fn_get_lpn                               0x0081d29d   Thumb Code    60  friendship_fn.o(.text)
    fn_get_lpn1                              0x0081d2d9   Thumb Code    78  friendship_fn.o(.text)
    fn_get_master_key                        0x0081d327   Thumb Code    92  friendship_fn.o(.text)
    fn_get_poll_to                           0x0081d383   Thumb Code    68  friendship_fn.o(.text)
    fn_frnd_queue_reset                      0x0081d3c7   Thumb Code   120  friendship_fn.o(.text)
    fn_frnd_queue_delete                     0x0081d43f   Thumb Code    98  friendship_fn.o(.text)
    fn_frnd_queue_add                        0x0081d4a1   Thumb Code   268  friendship_fn.o(.text)
    fn_frnd_queue_add_seg_ack                0x0081d5ad   Thumb Code   180  friendship_fn.o(.text)
    fn_frnd_queue_add_frnd_upd               0x0081d661   Thumb Code   144  friendship_fn.o(.text)
    fn_lpn_sub_check                         0x0081d6f1   Thumb Code    74  friendship_fn.o(.text)
    fn_lpn_sub_add                           0x0081d73b   Thumb Code   186  friendship_fn.o(.text)
    fn_lpn_sub_remove                        0x0081d7f5   Thumb Code   134  friendship_fn.o(.text)
    fn_lpn_sub_clear                         0x0081d87b   Thumb Code    48  friendship_fn.o(.text)
    fn_frnd_key_gen                          0x0081d8ab   Thumb Code   112  friendship_fn.o(.text)
    fn_frnd_key_upd                          0x0081d91b   Thumb Code    52  friendship_fn.o(.text)
    fn_frnd_key_refresh                      0x0081d94f   Thumb Code    60  friendship_fn.o(.text)
    fn_handle_frnd_req                       0x0081d98b   Thumb Code   816  friendship_fn.o(.text)
    fn_ctx_clear                             0x0081dcbb   Thumb Code   120  friendship_fn.o(.text)
    fn_handle_frnd_clear                     0x0081dd33   Thumb Code   160  friendship_fn.o(.text)
    fn_handle_frnd_clear_conf                0x0081ddd3   Thumb Code   160  friendship_fn.o(.text)
    fn_handle_iv_index_update                0x0081e173   Thumb Code    74  friendship_fn.o(.text)
    fn_handle_msg                            0x0081e1bd   Thumb Code   368  friendship_fn.o(.text)
    fn_handle_timeout                        0x0081e32d   Thumb Code   366  friendship_fn.o(.text)
    fn_cache_check                           0x0081e49b   Thumb Code   130  friendship_fn.o(.text)
    fn_cache                                 0x0081e51d   Thumb Code   548  friendship_fn.o(.text)
    fn_clear                                 0x0081e741   Thumb Code    88  friendship_fn.o(.text)
    fn_init                                  0x0081e799   Thumb Code   284  friendship_fn.o(.text)
    fn_deinit                                0x0081e8b5   Thumb Code    88  friendship_fn.o(.text)
    prov_disconnect                          0x0081e9ab   Thumb Code    86  provision_device.o(.text)
    device_receive                           0x0081ec95   Thumb Code   352  provision_device.o(.text)
    device_prov_cb                           0x0081edf5   Thumb Code   176  provision_device.o(.text)
    prov_auth_value_set                      0x0081eea5   Thumb Code   194  provision_device.o(.text)
    prov_init                                0x0081ef67   Thumb Code    38  provision_device.o(.text)
    mesh_flash_clear                         0x0081f1cd   Thumb Code  1048  mesh_flash.o(.text)
    mesh_flash_store                         0x0081f77f   Thumb Code  1138  mesh_flash.o(.text)
    mesh_flash_restore                       0x0081fbf1   Thumb Code  1098  mesh_flash.o(.text)
    mesh_flash_restore_node_state            0x0082003b   Thumb Code    42  mesh_flash.o(.text)
    gap_set_lps_bootup_active_time           0x0082006d   Thumb Code    52  gap_vendor_cmd.o(.text)
    lps_get_wakeup_time                      0x008200a1   Thumb Code    22  gap_vendor_cmd.o(.text)
    le_handle_vendor_cmd_rsp                 0x008200b7   Thumb Code   152  gap_vendor_cmd.o(.text)
    gap_vendor_cmd_req                       0x0082014f   Thumb Code    16  gap_vendor_cmd.o(.text)
    le_handle_vendor_evt_info                0x0082015f   Thumb Code    22  gap_vendor_cmd.o(.text)
    le_vendor_modify_bt_le_fw_policy         0x00820175   Thumb Code    74  gap_vendor_cmd.o(.text)
    le_vendor_check_priority_level           0x008201bf   Thumb Code    12  gap_vendor_cmd.o(.text)
    le_vendor_set_priority                   0x008201cb   Thumb Code   336  gap_vendor_cmd.o(.text)
    le_vendor_measure_master_clk_freq_mode   0x0082031b   Thumb Code    44  gap_vendor_cmd.o(.text)
    plt_list_push                            0x00820359   Thumb Code    26  platform_list.o(.text)
    plt_list_pop                             0x00820373   Thumb Code    26  platform_list.o(.text)
    plt_list_insert                          0x0082038d   Thumb Code    34  platform_list.o(.text)
    plt_list_delete                          0x008203af   Thumb Code    28  platform_list.o(.text)
    xor_128                                  0x008203cd   Thumb Code    20  aes_cmac.o(.text)
    leftshift_onebit                         0x008203e1   Thumb Code    24  aes_cmac.o(.text)
    generate_subkey                          0x008203f9   Thumb Code   108  aes_cmac.o(.text)
    padding                                  0x00820465   Thumb Code    36  aes_cmac.o(.text)
    AES_CMAC                                 0x00820489   Thumb Code   178  aes_cmac.o(.text)
    ccm_auth_encrypt                         0x008207f3   Thumb Code    50  ccm.o(.text)
    ccm_auth_decrypt                         0x00820825   Thumb Code    86  ccm.o(.text)
    ecc_validate_key                         0x008212f9   Thumb Code   194  ecc.o(.text)
    ecdh_shared_secret                       0x008213bb   Thumb Code   150  ecc.o(.text)
    prov_server_write_cb                     0x00821639   Thumb Code   102  provision_server.o(.text)
    prov_server_notify                       0x0082169f   Thumb Code    52  provision_server.o(.text)
    prov_server_cccd_update_cb               0x008216d3   Thumb Code    66  provision_server.o(.text)
    prov_server_add                          0x00821737   Thumb Code    90  provision_server.o(.text)
    prov_service_send                        0x008217b5   Thumb Code    30  provision_service.o(.text)
    prov_service_receive                     0x008217d3   Thumb Code    50  provision_service.o(.text)
    prov_service_handle_tx_done              0x00821805   Thumb Code    18  provision_service.o(.text)
    prov_service_handle_disc                 0x00821817   Thumb Code    34  provision_service.o(.text)
    proxy_server_write_cb                    0x0082184d   Thumb Code    90  proxy_server.o(.text)
    proxy_server_cccd_update_cb              0x008218a7   Thumb Code    86  proxy_server.o(.text)
    proxy_server_notify                      0x008218fd   Thumb Code    52  proxy_server.o(.text)
    proxy_server_add                         0x00821953   Thumb Code    90  proxy_server.o(.text)
    proxy_service_send                       0x008219d1   Thumb Code    44  proxy_service.o(.text)
    proxy_service_receive                    0x008219fd   Thumb Code    92  proxy_service.o(.text)
    proxy_service_handle_disc                0x00821a59   Thumb Code    30  proxy_service.o(.text)
    trans_send_check                         0x00821a7d   Thumb Code    12  mesh_transport.o(.text)
    trans_tx_timer_start                     0x00821aa7   Thumb Code   114  mesh_transport.o(.text)
    trans_tx_timer_stop                      0x00821b19   Thumb Code    24  mesh_transport.o(.text)
    trans_rx_timer_start                     0x00821b31   Thumb Code   120  mesh_transport.o(.text)
    trans_rx_timer_stop                      0x00821ba9   Thumb Code    24  mesh_transport.o(.text)
    trans_rx_incomplete_timer_start          0x00821bc1   Thumb Code    62  mesh_transport.o(.text)
    trans_rx_incomplete_timer_stop           0x00821bff   Thumb Code    24  mesh_transport.o(.text)
    trans_rx_ctx_find                        0x00821c17   Thumb Code    84  mesh_transport.o(.text)
    trans_rx_ctx_find1                       0x00821c6b   Thumb Code    76  mesh_transport.o(.text)
    trans_seg_ack                            0x00821cb7   Thumb Code   242  mesh_transport.o(.text)
    trans_send_seg                           0x00821da9   Thumb Code   486  mesh_transport.o(.text)
    trans_access_encrypt                     0x00821f8f   Thumb Code   568  mesh_transport.o(.text)
    trans_access_decrypt                     0x008221c7   Thumb Code   894  mesh_transport.o(.text)
    trans_tx_queue_pop                       0x00822545   Thumb Code   322  mesh_transport.o(.text)
    trans_tx_queue_free                      0x00822687   Thumb Code    32  mesh_transport.o(.text)
    trans_need_retransmit                    0x008226a7   Thumb Code   194  mesh_transport.o(.text)
    trans_retransmit                         0x00822769   Thumb Code   208  mesh_transport.o(.text)
    trans_send                               0x00822839   Thumb Code   632  mesh_transport.o(.text)
    trans_control_handler                    0x00822ab1   Thumb Code    70  mesh_transport.o(.text)
    trans_receive                            0x00822af7   Thumb Code  1406  mesh_transport.o(.text)
    trans_handle_timeout                     0x00823075   Thumb Code   164  mesh_transport.o(.text)
    trans_hb                                 0x00823119   Thumb Code   120  mesh_transport.o(.text)
    trans_init                               0x00823191   Thumb Code    76  mesh_transport.o(.text)
    trans_deinit                             0x008231dd   Thumb Code   158  mesh_transport.o(.text)
    nmc_init                                 0x00823295   Thumb Code   128  mesh_network.o(.text)
    nmc_clear                                0x00823315   Thumb Code    78  mesh_network.o(.text)
    nmc_deinit                               0x00823363   Thumb Code    40  mesh_network.o(.text)
    nmc_check                                0x0082338b   Thumb Code    84  mesh_network.o(.text)
    nmc_update                               0x008233df   Thumb Code    70  mesh_network.o(.text)
    net_send                                 0x00823425   Thumb Code   420  mesh_network.o(.text)
    net_relay_cb                             0x008235c9   Thumb Code    12  mesh_network.o(.text)
    net_receive                              0x008235d5   Thumb Code  1224  mesh_network.o(.text)
    mesh_s1                                  0x00823aad   Thumb Code    22  mesh_security.o(.text)
    mesh_k1                                  0x00823ac3   Thumb Code    36  mesh_security.o(.text)
    mesh_k2                                  0x00823ae7   Thumb Code   478  mesh_security.o(.text)
    mesh_k3                                  0x00823cc5   Thumb Code   270  mesh_security.o(.text)
    mesh_k4                                  0x00823dd3   Thumb Code   222  mesh_security.o(.text)
    vir_addr_gen                             0x00823eb1   Thumb Code   282  mesh_security.o(.text)
    identity_key_gen                         0x00823fcb   Thumb Code   206  mesh_security.o(.text)
    identity_hash_gen                        0x00824099   Thumb Code   168  mesh_security.o(.text)
    beacon_key_gen                           0x00824141   Thumb Code   204  mesh_security.o(.text)
    app_nonce_gen                            0x0082420d   Thumb Code   120  mesh_security.o(.text)
    net_nonce_gen                            0x00824285   Thumb Code   110  mesh_security.o(.text)
    proxy_nonce_gen                          0x008242f3   Thumb Code   148  mesh_security.o(.text)
    app_encrypt                              0x00824387   Thumb Code   316  mesh_security.o(.text)
    app_decrypt                              0x008244c3   Thumb Code   292  mesh_security.o(.text)
    net_encrypt                              0x008245e7   Thumb Code   260  mesh_security.o(.text)
    net_decrypt                              0x008246eb   Thumb Code   260  mesh_security.o(.text)
    privacy_counter_gen                      0x008247ef   Thumb Code    98  mesh_security.o(.text)
    net_obfuscate                            0x00824851   Thumb Code   192  mesh_security.o(.text)
    rpl_init                                 0x00824925   Thumb Code   104  mesh_rpl.o(.text)
    rpl_deinit                               0x0082498d   Thumb Code    34  mesh_rpl.o(.text)
    rpl_check                                0x008249af   Thumb Code   262  mesh_rpl.o(.text)
    rpl_clear                                0x00824ab5   Thumb Code    62  mesh_rpl.o(.text)
    rpl_reset                                0x00824af3   Thumb Code    58  mesh_rpl.o(.text)
    pb_adv_receive_filter                    0x00824e85   Thumb Code    28  provision_adv.o(.text)
    pb_adv_receive_sar                       0x00824ea1   Thumb Code   156  provision_adv.o(.text)
    pb_adv_receive                           0x00824f3d   Thumb Code  1416  provision_adv.o(.text)
    pb_adv_handle_timeout                    0x008254c5   Thumb Code   324  provision_adv.o(.text)
    pb_adv_link_open                         0x00825609   Thumb Code   146  provision_adv.o(.text)
    pb_adv_link_close                        0x0082569b   Thumb Code    56  provision_adv.o(.text)
    pb_adv_link_check                        0x008256d3   Thumb Code    12  provision_adv.o(.text)
    pb_adv_send                              0x008256df   Thumb Code   230  provision_adv.o(.text)
    pb_adv_init                              0x008257c5   Thumb Code    12  provision_adv.o(.text)
    pb_adv_deinit                            0x008257d1   Thumb Code     6  provision_adv.o(.text)
    proxy_send                               0x008257e1   Thumb Code   278  proxy_protocol.o(.text)
    proxy_receive                            0x008258f7   Thumb Code   330  proxy_protocol.o(.text)
    proxy_filter_add_addr                    0x00825a41   Thumb Code    88  proxy_protocol.o(.text)
    proxy_filter_remove_addr                 0x00825a99   Thumb Code    82  proxy_protocol.o(.text)
    proxy_filter_update                      0x00825aeb   Thumb Code    16  proxy_protocol.o(.text)
    proxy_filter_free                        0x00825afb   Thumb Code    46  proxy_protocol.o(.text)
    proxy_filter                             0x00825b29   Thumb Code    88  proxy_protocol.o(.text)
    proxy_cfg_send                           0x00825b81   Thumb Code   260  proxy_protocol.o(.text)
    proxy_cfg_set_filter_type                0x00825c85   Thumb Code    26  proxy_protocol.o(.text)
    proxy_cfg_add_remove_addr                0x00825c9f   Thumb Code   108  proxy_protocol.o(.text)
    proxy_cfg_filter_stat                    0x00825d0b   Thumb Code    36  proxy_protocol.o(.text)
    proxy_cfg_handle_msg                     0x00825d2f   Thumb Code   298  proxy_protocol.o(.text)
    proxy_cfg_receive                        0x00825e59   Thumb Code   514  proxy_protocol.o(.text)
    proxy_ctx_allocate                       0x00826073   Thumb Code   188  proxy_protocol.o(.text)
    proxy_ctx_set_cb                         0x0082612f   Thumb Code    32  proxy_protocol.o(.text)
    proxy_ctx_set_filter_type                0x0082614f   Thumb Code    28  proxy_protocol.o(.text)
    proxy_ctx_set_link                       0x0082616b   Thumb Code    28  proxy_protocol.o(.text)
    proxy_ctx_get_link                       0x00826187   Thumb Code    26  proxy_protocol.o(.text)
    proxy_ctx_free                           0x008261a1   Thumb Code    52  proxy_protocol.o(.text)
    proxy_ctx_init                           0x008261d5   Thumb Code    70  proxy_protocol.o(.text)
    proxy_ctx_deinit                         0x0082621b   Thumb Code    44  proxy_protocol.o(.text)
    proxy_handle_timeout                     0x00826247   Thumb Code    58  proxy_protocol.o(.text)
    frnd_poll_cb                             0x008262a5   Thumb Code    86  friendship_lpn.o(.text)
    frnd_req                                 0x008262fb   Thumb Code   296  friendship_lpn.o(.text)
    frnd_poll                                0x00826423   Thumb Code   232  friendship_lpn.o(.text)
    frnd_sub_list_add_rm                     0x0082650b   Thumb Code   244  friendship_lpn.o(.text)
    lpn_frnd_key_gen                         0x008266e1   Thumb Code   116  friendship_lpn.o(.text)
    lpn_frnd_key_upd                         0x00826755   Thumb Code    56  friendship_lpn.o(.text)
    lpn_frnd_key_refresh                     0x0082678d   Thumb Code    66  friendship_lpn.o(.text)
    lpn_handle_frnd_offer                    0x008267cf   Thumb Code   226  friendship_lpn.o(.text)
    lpn_handle_frnd_upd                      0x008268b1   Thumb Code   514  friendship_lpn.o(.text)
    lpn_handle_cache_pkt                     0x00826ab3   Thumb Code   222  friendship_lpn.o(.text)
    lpn_handle_msg                           0x00826b91   Thumb Code   260  friendship_lpn.o(.text)
    lpn_handle_timeout                       0x00826ccb   Thumb Code   528  friendship_lpn.o(.text)
    lpn_filter                               0x00826edb   Thumb Code     4  friendship_lpn.o(.text)
    lpn_req                                  0x00826edf   Thumb Code   346  friendship_lpn.o(.text)
    lpn_frnd_key_get                         0x00827039   Thumb Code    66  friendship_lpn.o(.text)
    lpn_frnd_exist_by_key                    0x0082707b   Thumb Code    22  friendship_lpn.o(.text)
    lpn_frnd_exist                           0x00827091   Thumb Code    40  friendship_lpn.o(.text)
    lpn_clear                                0x008270b9   Thumb Code    68  friendship_lpn.o(.text)
    lpn_init                                 0x008270fd   Thumb Code   148  friendship_lpn.o(.text)
    lpn_deinit                               0x00827191   Thumb Code    58  friendship_lpn.o(.text)
    hb_log2_greater                          0x008271fd   Thumb Code    42  heartbeat.o(.text)
    hb_exp2                                  0x00827227   Thumb Code    46  heartbeat.o(.text)
    hb_log2_less                             0x00827255   Thumb Code    30  heartbeat.o(.text)
    hb_init                                  0x00827273   Thumb Code     8  heartbeat.o(.text)
    hb_msg_send                              0x0082727b   Thumb Code   230  heartbeat.o(.text)
    hb_timer_cb                              0x00827361   Thumb Code    74  heartbeat.o(.text)
    hb_timer_start                           0x008273ab   Thumb Code   192  heartbeat.o(.text)
    hb_timer_stop                            0x0082746b   Thumb Code    82  heartbeat.o(.text)
    hb_handle_timeout                        0x008274bd   Thumb Code   104  heartbeat.o(.text)
    hb_receive_filter                        0x00827525   Thumb Code    28  heartbeat.o(.text)
    hb_handle_msg                            0x00827541   Thumb Code   162  heartbeat.o(.text)
    hb_publication_set                       0x008275e3   Thumb Code    10  heartbeat.o(.text)
    hb_publication_get                       0x008275ed   Thumb Code    16  heartbeat.o(.text)
    hb_subscription_set                      0x008275fd   Thumb Code    16  heartbeat.o(.text)
    hb_subscription_get                      0x0082760d   Thumb Code    16  heartbeat.o(.text)
    hb_deinit                                0x0082761d   Thumb Code    84  heartbeat.o(.text)
    hb_run                                   0x00827671   Thumb Code    26  heartbeat.o(.text)
    cfg_compo_data_stat                      0x008276fb   Thumb Code    74  configuration_server.o(.text)
    cfg_beacon_stat                          0x00827745   Thumb Code    28  configuration_server.o(.text)
    cfg_default_ttl_stat                     0x00827761   Thumb Code    28  configuration_server.o(.text)
    cfg_proxy_stat                           0x0082777d   Thumb Code    28  configuration_server.o(.text)
    cfg_relay_stat                           0x00827799   Thumb Code    44  configuration_server.o(.text)
    cfg_net_transmit_stat                    0x008277c5   Thumb Code    40  configuration_server.o(.text)
    cfg_model_pub_stat                       0x008277ed   Thumb Code   100  configuration_server.o(.text)
    cfg_model_sub_stat                       0x00827851   Thumb Code    72  configuration_server.o(.text)
    cfg_model_sub_list                       0x00827899   Thumb Code   158  configuration_server.o(.text)
    cfg_net_key_stat                         0x00827937   Thumb Code    32  configuration_server.o(.text)
    cfg_net_key_list                         0x00827957   Thumb Code   146  configuration_server.o(.text)
    cfg_app_key_stat                         0x008279e9   Thumb Code    50  configuration_server.o(.text)
    cfg_app_key_list                         0x00827a1b   Thumb Code   176  configuration_server.o(.text)
    cfg_node_identity_stat                   0x00827acb   Thumb Code    36  configuration_server.o(.text)
    cfg_model_app_stat                       0x00827aef   Thumb Code    72  configuration_server.o(.text)
    cfg_model_app_list                       0x00827b37   Thumb Code   232  configuration_server.o(.text)
    cfg_node_reset_stat                      0x00827c1f   Thumb Code    24  configuration_server.o(.text)
    cfg_frnd_stat                            0x00827c37   Thumb Code    28  configuration_server.o(.text)
    cfg_lpn_poll_timeout_stat                0x00827c53   Thumb Code    44  configuration_server.o(.text)
    cfg_key_refresh_phase_stat               0x00827c7f   Thumb Code    36  configuration_server.o(.text)
    cfg_hb_pub_stat                          0x00827ca3   Thumb Code    56  configuration_server.o(.text)
    cfg_hb_sub_stat                          0x00827cdb   Thumb Code    60  configuration_server.o(.text)
    cfg_server_handle_module_pub_set         0x00827d4b   Thumb Code   332  configuration_server.o(.text)
    cfg_server_handle_model_pub_va_set       0x00827e97   Thumb Code   400  configuration_server.o(.text)
    cfg_server_handle_model_sub_add          0x00828027   Thumb Code   160  configuration_server.o(.text)
    cfg_server_handle_model_sub_delete_all   0x008280c7   Thumb Code    94  configuration_server.o(.text)
    cfg_server_handle_model_sub_va_add       0x00828125   Thumb Code   294  configuration_server.o(.text)
    cfg_server_handle_model_sub_get          0x0082824b   Thumb Code   170  configuration_server.o(.text)
    cfg_server_handle_net_key_add            0x008282f5   Thumb Code   106  configuration_server.o(.text)
    cfg_server_handle_net_key_update         0x0082835f   Thumb Code   182  configuration_server.o(.text)
    cfg_server_handle_net_key_delete         0x00828415   Thumb Code   170  configuration_server.o(.text)
    cfg_server_handle_net_key_get            0x008284bf   Thumb Code    58  configuration_server.o(.text)
    cfg_server_handle_app_key_add            0x008284f9   Thumb Code   170  configuration_server.o(.text)
    cfg_server_handle_app_key_update         0x008285a3   Thumb Code   264  configuration_server.o(.text)
    cfg_server_handle_app_key_delete         0x008286ab   Thumb Code   114  configuration_server.o(.text)
    cfg_server_handle_app_key_get            0x0082871d   Thumb Code   104  configuration_server.o(.text)
    cfg_server_handle_node_identity_get      0x00828785   Thumb Code    88  configuration_server.o(.text)
    cfg_server_handle_node_identity_set      0x008287dd   Thumb Code   108  configuration_server.o(.text)
    cfg_server_handle_model_app_bind         0x00828849   Thumb Code   188  configuration_server.o(.text)
    cfg_server_handle_model_app_get          0x00828905   Thumb Code   164  configuration_server.o(.text)
    cfg_server_handle_key_refresh_phase_set  0x008289a9   Thumb Code   170  configuration_server.o(.text)
    cfg_server_receive                       0x00828a53   Thumb Code  2186  configuration_server.o(.text)
    cfg_server_reg                           0x008292dd   Thumb Code    42  configuration_server.o(.text)
    cfg_server_resp_with_seg_msg             0x00829307   Thumb Code     8  configuration_server.o(.text)
    cfg_server_set_net_trans                 0x0082930f   Thumb Code     8  configuration_server.o(.text)
    crc8EtsGen                               0x0082932d   Thumb Code    28  crc8ets.o(.text)
    crc8EtsCheck                             0x00829349   Thumb Code    38  crc8ets.o(.text)
    trans_ping                               0x00829375   Thumb Code   114  transport_ping.o(.text)
    trans_pong                               0x008293e7   Thumb Code   120  transport_ping.o(.text)
    trans_handle_ping_pong_msg               0x0082945f   Thumb Code   208  transport_ping.o(.text)
    trans_ping_pong_init                     0x0082952f   Thumb Code     8  transport_ping.o(.text)
    __aeabi_llsl                             0x0082955d   Thumb Code     0  llshl.o(.text)
    _ll_shift_l                              0x0082955d   Thumb Code    38  llshl.o(.text)
    __aeabi_llsr                             0x00829583   Thumb Code     0  llushr.o(.text)
    _ll_ushift_r                             0x00829583   Thumb Code    38  llushr.o(.text)
    __2sprintf                               0x008295a9   Thumb Code    34  noretval__2sprintf.o(.text)
    _printf_pre_padding                      0x008295d1   Thumb Code    44  _printf_pad.o(.text)
    _printf_post_padding                     0x008295fd   Thumb Code    34  _printf_pad.o(.text)
    _printf_int_hex                          0x00829621   Thumb Code    84  _printf_hex_int.o(.text)
    _printf_longlong_hex                     0x00829621   Thumb Code     0  _printf_hex_int.o(.text)
    __printf                                 0x00829679   Thumb Code   308  __printf_flags_wp.o(.text)
    srand                                    0x008297b1   Thumb Code    42  rand.o(.text)
    _rand_init                               0x008297db   Thumb Code     4  rand.o(.text)
    strncmp                                  0x008297ed   Thumb Code   150  strncmp.o(.text)
    _printf_int_common                       0x00829883   Thumb Code   178  _printf_intcommon.o(.text)
    _printf_char_common                      0x0082993f   Thumb Code    32  _printf_char_common.o(.text)
    _sputc                                   0x00829965   Thumb Code    10  _sputc.o(.text)
    UpdateMAC                                0x00829971   Thumb Code    68  rtl876x_lib_platform.o(i.UpdateMAC)
    __hardfp_ceil                            0x008299d1   Thumb Code   252  ceil.o(i.__hardfp_ceil)
    _is_digit                                0x00829bc5   Thumb Code    14  __printf_wp.o(i._is_digit)
    cfg_add_item                             0x00829bd5   Thumb Code   246  rtl876x_lib_cfg_int.o(i.cfg_add_item)
    cfg_find_item                            0x00829d09   Thumb Code   200  rtl876x_lib_cfg_int.o(i.cfg_find_item)
    flash_lock_new                           0x00829e11   Thumb Code    62  rtl8762c_lib_flash.o(i.flash_lock_new)
    flash_set_block_protect_locked           0x00829e5d   Thumb Code    38  rtl8762c_lib_flash.o(i.flash_set_block_protect_locked)
    flash_sw_protect_unlock_by_addr_locked   0x00829e83   Thumb Code    42  rtl8762c_lib_flash.o(i.flash_sw_protect_unlock_by_addr_locked)
    flash_sw_protect_unlock_by_addr_new      0x00829ead   Thumb Code   176  rtl8762c_lib_flash.o(i.flash_sw_protect_unlock_by_addr_new)
    flash_unlock_new                         0x00829f61   Thumb Code    44  rtl8762c_lib_flash.o(i.flash_unlock_new)
    __aeabi_d2f                              0x00829f99   Thumb Code     0  d2f.o(x$fpl$d2f)
    _d2f                                     0x00829f99   Thumb Code    98  d2f.o(x$fpl$d2f)
    __aeabi_dadd                             0x00829ffd   Thumb Code     0  daddsub_clz.o(x$fpl$dadd)
    _dadd                                    0x00829ffd   Thumb Code   332  daddsub_clz.o(x$fpl$dadd)
    __fpl_dcmp_Inf                           0x0082a14d   Thumb Code    24  dcmpi.o(x$fpl$dcmpinf)
    __aeabi_ddiv                             0x0082a165   Thumb Code     0  ddiv.o(x$fpl$ddiv)
    _ddiv                                    0x0082a165   Thumb Code   552  ddiv.o(x$fpl$ddiv)
    __aeabi_d2uiz                            0x0082a415   Thumb Code     0  dfixu.o(x$fpl$dfixu)
    _dfixu                                   0x0082a415   Thumb Code    90  dfixu.o(x$fpl$dfixu)
    __aeabi_i2d                              0x0082a46f   Thumb Code     0  dflt_clz.o(x$fpl$dflt)
    _dflt                                    0x0082a46f   Thumb Code    46  dflt_clz.o(x$fpl$dflt)
    __aeabi_ui2d                             0x0082a49d   Thumb Code     0  dflt_clz.o(x$fpl$dfltu)
    _dfltu                                   0x0082a49d   Thumb Code    38  dflt_clz.o(x$fpl$dfltu)
    __aeabi_cdcmple                          0x0082a4c5   Thumb Code     0  dleqf.o(x$fpl$dleqf)
    _dcmple                                  0x0082a4c5   Thumb Code   120  dleqf.o(x$fpl$dleqf)
    __fpl_dcmple_InfNaN                      0x0082a527   Thumb Code     0  dleqf.o(x$fpl$dleqf)
    __aeabi_dmul                             0x0082a53d   Thumb Code     0  dmul.o(x$fpl$dmul)
    _dmul                                    0x0082a53d   Thumb Code   332  dmul.o(x$fpl$dmul)
    __fpl_dnaninf                            0x0082a691   Thumb Code   156  dnaninf.o(x$fpl$dnaninf)
    __fpl_dretinf                            0x0082a72d   Thumb Code    12  dretinf.o(x$fpl$dretinf)
    __aeabi_cdrcmple                         0x0082a739   Thumb Code     0  drleqf.o(x$fpl$drleqf)
    _drcmple                                 0x0082a739   Thumb Code   108  drleqf.o(x$fpl$drleqf)
    __aeabi_drsub                            0x0082a7a5   Thumb Code     0  daddsub_clz.o(x$fpl$drsb)
    _drsb                                    0x0082a7a5   Thumb Code    22  daddsub_clz.o(x$fpl$drsb)
    __aeabi_dsub                             0x0082a7bd   Thumb Code     0  daddsub_clz.o(x$fpl$dsub)
    _dsub                                    0x0082a7bd   Thumb Code   464  daddsub_clz.o(x$fpl$dsub)
    __aeabi_f2d                              0x0082a991   Thumb Code     0  f2d.o(x$fpl$f2d)
    _f2d                                     0x0082a991   Thumb Code    86  f2d.o(x$fpl$f2d)
    __fpl_fnaninf                            0x0082a9e7   Thumb Code   140  fnaninf.o(x$fpl$fnaninf)
    _fp_init                                 0x0082aa73   Thumb Code    10  fpinit.o(x$fpl$fpinit)
    __fplib_config_fpu_vfp                   0x0082aa7b   Thumb Code     0  fpinit.o(x$fpl$fpinit)
    __fplib_config_pureend_doubles           0x0082aa7b   Thumb Code     0  fpinit.o(x$fpl$fpinit)
    __fpl_fretinf                            0x0082aa7d   Thumb Code    10  fretinf.o(x$fpl$fretinf)
    __I$use$fp                               0x0082aa86   Number         0  usenofp.o(x$fpl$usenofp)
    app_cb_table                             0x0082aa88   Data          32  system_rtl8762c.o(.constdata)
    dfu_service_uuid                         0x0082abb4   Data          16  dfu_server.o(.constdata)
    dfu_service_table                        0x0082abc4   Data         168  dfu_server.o(.constdata)
    dfu_server_cbs                           0x0082ac6c   Data          12  dfu_server.o(.constdata)
    dfu_data_uuid                            0x0082aca4   Data          16  dfu_client.o(.constdata)
    dfu_cp_uuid                              0x0082acb4   Data          16  dfu_client.o(.constdata)
    dfu_client_cbs                           0x0082acc4   Data          24  dfu_client.o(.constdata)
    GATT_UUID_OTA_SERVICE                    0x0082acf2   Data          16  ota_server.o(.constdata)
    gattOtaServiceTable                      0x0082ad04   Data         532  ota_server.o(.constdata)
    OTAServiceCBs                            0x0082af18   Data          12  ota_server.o(.constdata)
    ais_server_table                         0x0082af38   Data         364  ais_server.o(.constdata)
    ais_server_cbs                           0x0082b0a4   Data          12  ais_server.o(.constdata)
    dis_cbs                                  0x0082b310   Data          12  dis.o(.constdata)
    tick_map                                 0x0082b410   Data           8  generic_transition_time.o(.constdata)
    mp_cmd_table                             0x0082b528   Data          16  mp_cmd.o(.constdata)
    prov_server_table                        0x0082bab0   Data         168  provision_server.o(.constdata)
    prov_server_cbs                          0x0082bb58   Data          12  provision_server.o(.constdata)
    proxy_server_table                       0x0082bb64   Data         168  proxy_server.o(.constdata)
    proxy_server_cbs                         0x0082bc0c   Data          12  proxy_server.o(.constdata)
    Load$$RAM_VECTOR_TABLE$$RO$$Base         0x0082c234   Number         0  anon$$obj.o ABSOLUTE
    Load$$RAM_DATA_ON$$RO$$Base              0x0082c328   Number         0  anon$$obj.o ABSOLUTE
    Load$$RAM_DATA_ON$$RW$$Base              0x0082c750   Number         0  anon$$obj.o ABSOLUTE
    Load$$OVERLAY_A$$RO$$Base                0x0082c8b0   Number         0  anon$$obj.o ABSOLUTE
    Load$$CACHE_DATA_ON$$RO$$Base            0x0082c984   Number         0  anon$$obj.o ABSOLUTE
    Load$$CACHE_DATA_ON$$RW$$Base            0x0082c984   Number         0  anon$$obj.o ABSOLUTE
    Load$$OVERLAY_A$$RW$$Base                0x0082c984   Number         0  anon$$obj.o ABSOLUTE
    Load$$OVERLAY_B$$RO$$Base                0x0082c984   Number         0  anon$$obj.o ABSOLUTE
    Load$$OVERLAY_B$$RW$$Base                0x0082c984   Number         0  anon$$obj.o ABSOLUTE
    Load$$OVERLAY_C$$RO$$Base                0x0082c984   Number         0  anon$$obj.o ABSOLUTE
    Load$$OVERLAY_C$$RW$$Base                0x0082c984   Number         0  anon$$obj.o ABSOLUTE



==============================================================================

Memory Map of the image

  Image Entry point : 0x0080e409

  Load Region LOAD_FLASH (Base: 0x0080e000, Size: 0x0001e984, Max: 0x00032000, ABSOLUTE)

    Execution Region RAM_VECTOR_TABLE (Exec base: 0x00200000, Load base: 0x0082c234, Size: 0x000000f4, Max: 0x000000f4, OVERLAY)

    Exec Addr    Load Addr    Size         Type   Attr      Idx    E Section Name        Object

    0x00200000   0x0082c234   0x000000f4   Data   RO            1    VECTOR              startup_rtl8762c.o


    Execution Region RAM_DATA_ON (Exec base: 0x00207c00, Load base: 0x0082c328, Size: 0x00001124, Max: 0x00007800, OVERLAY)

    Exec Addr    Load Addr    Size         Type   Attr      Idx    E Section Name        Object

    0x00207c00   0x0082c328   0x00000124   Code   RO           17    .ram.dataon.data    system_rtl8762c.o
    0x00207d24   0x0082c44c   0x00000304   Code   RO          184    .ram.dataon.data    rtl876x_io_dlps.o
    0x00208028   0x0082c750   0x00000004   Data   RW           25    .data               system_rtl8762c.o
    0x0020802c   0x0082c754   0x00000001   Data   RW          364    .data               dfu_server.o
    0x0020802d   0x0082c755   0x00000002   Data   RW          555    .data               dfu_client.o
    0x0020802f   0x0082c757   0x0000002e   Data   RW          704    .data               dis.o
    0x0020805d   0x0082c785   0x00000003   PAD
    0x00208060   0x0082c788   0x00000010   Data   RW         1447    .data               dimmable_light.o
    0x00208070   0x0082c798   0x0000006c   Data   RW         1537    .data               overlay_mgr.o
    0x002080dc   0x0082c804   0x00000050   Data   RW         1622    .data               light_cwrgb_app.o
    0x0020812c   0x0082c854   0x00000008   Data   RW         1781    .data               strip_app.o
    0x00208134   0x0082c85c   0x0000000b   Data   RW         1906    .data               main_app.o
    0x0020813f   0x0082c867   0x00000001   Data   RW         1959    .data               silent_dfu_flash.o
    0x00208140   0x0082c868   0x00000010   Data   RW         2657    .data               mesh_dev.lib(platform_diagnose.o)
    0x00208150   0x0082c878   0x00000021   Data   RW         2745    .data               mesh_dev.lib(gap_scheduler.o)
    0x00208171   0x0082c899   0x00000010   Data   RW         3531    .data               mesh_dev.lib(aes_cmac.o)
    0x00208181   0x0082c8a9   0x00000001   Data   RW         3622    .data               mesh_dev.lib(provision_service.o)
    0x00208182   0x0082c8aa   0x00000001   Data   RW         3681    .data               mesh_dev.lib(proxy_service.o)
    0x00208183   0x0082c8ab   0x00000002   Data   RW         3980    .data               mesh_dev.lib(configuration_server.o)
    0x00208185   0x0082c8ad   0x00000003   PAD
    0x00208188        -       0x0000001f   Zero   RW           21    .bss                system_rtl8762c.o
    0x002081a7   0x0082c8ad   0x00000001   PAD
    0x002081a8        -       0x00000108   Zero   RW          187    .bss                rtl876x_io_dlps.o
    0x002082b0        -       0x0000004c   Zero   RW          359    .bss                dfu_server.o
    0x002082fc        -       0x0000003c   Zero   RW          553    .bss                dfu_client.o
    0x00208338        -       0x00000038   Zero   RW          594    .bss                ota_server.o
    0x00208370        -       0x0000003c   Zero   RW          628    .bss                ais_server.o
    0x002083ac        -       0x00000084   Zero   RW          701    .bss                dis.o
    0x00208430        -       0x00000050   Zero   RW          761    .bss                firmware_update_server.o
    0x00208480        -       0x00000060   Zero   RW          793    .bss                object_transfer_server.o
    0x002084e0        -       0x00000008   Zero   RW          951    .bss                generic_transition_time.o
    0x002084e8        -       0x00000004   Zero   RW         1356    .bss                delay_execution.o
    0x002084ec        -       0x00000028   Zero   RW         1412    .bss                dfu_updater_app.o
    0x00208514        -       0x00000008   Zero   RW         1446    .bss                dimmable_light.o
    0x0020851c        -       0x0000000c   Zero   RW         1487    .bss                mp_cmd_parse.o
    0x00208528        -       0x00000008   Zero   RW         1535    .bss                overlay_mgr.o
    0x00208530        -       0x0000000e   Zero   RW         1621    .bss                light_cwrgb_app.o
    0x0020853e   0x0082c8ad   0x00000002   PAD
    0x00208540        -       0x0000000c   Zero   RW         1654    .bss                app_task.o
    0x0020854c        -       0x00000028   Zero   RW         1699    .bss                main.o
    0x00208574        -       0x00000068   Zero   RW         1778    .bss                strip_app.o
    0x002085dc        -       0x00000150   Zero   RW         1863    .bss                strip_timer.o
    0x0020872c        -       0x00000014   Zero   RW         1903    .bss                main_app.o
    0x00208740        -       0x00000004   Zero   RW         1958    .bss                silent_dfu_flash.o
    0x00208744        -       0x000000f4   Zero   RW         2030    .bss                light_controller_app.o
    0x00208838        -       0x00000008   Zero   RW         2057    .bss                light_swtimer.o
    0x00208840        -       0x00000004   Zero   RW         2084    .bss                light_dlps_ctrl.o
    0x00208844        -       0x000000c4   Zero   RW         2675    .bss                mesh_dev.lib(aes.o)
    0x00208908        -       0x00000008   Zero   RW         2697    .bss                mesh_dev.lib(data_uart.o)
    0x00208910        -       0x00000060   Zero   RW         2743    .bss                mesh_dev.lib(gap_scheduler.o)
    0x00208970        -       0x00000004   Zero   RW         2908    .bss                mesh_dev.lib(mesh_access.o)
    0x00208974        -       0x00000004   Zero   RW         2961    .bss                mesh_dev.lib(mesh_bearer.o)
    0x00208978        -       0x00000010   Zero   RW         3030    .bss                mesh_dev.lib(mesh_beacon.o)
    0x00208988        -       0x00000020   Zero   RW         3065    .bss                mesh_dev.lib(mesh_common.o)
    0x002089a8        -       0x0000001c   Zero   RW         3109    .bss                mesh_dev.lib(mesh_provision.o)
    0x002089c4        -       0x00000018   Zero   RW         3175    .bss                mesh_dev.lib(mesh_service.o)
    0x002089dc        -       0x000000b0   Zero   RW         3224    .bss                mesh_dev.lib(mesh_node.o)
    0x00208a8c        -       0x0000000c   Zero   RW         3285    .bss                mesh_dev.lib(friendship_fn.o)
    0x00208a98        -       0x00000018   Zero   RW         3340    .bss                mesh_dev.lib(mesh_flash.o)
    0x00208ab0        -       0x00000002   Zero   RW         3589    .bss                mesh_dev.lib(provision_server.o)
    0x00208ab2   0x0082c8ad   0x00000002   PAD
    0x00208ab4        -       0x00000004   Zero   RW         3621    .bss                mesh_dev.lib(provision_service.o)
    0x00208ab8        -       0x00000002   Zero   RW         3653    .bss                mesh_dev.lib(proxy_server.o)
    0x00208aba   0x0082c8ad   0x00000002   PAD
    0x00208abc        -       0x00000084   Zero   RW         3712    .bss                mesh_dev.lib(mesh_transport.o)
    0x00208b40        -       0x0000003c   Zero   RW         3742    .bss                mesh_dev.lib(mesh_network.o)
    0x00208b7c        -       0x0000000c   Zero   RW         3797    .bss                mesh_dev.lib(mesh_rpl.o)
    0x00208b88        -       0x0000004c   Zero   RW         3829    .bss                mesh_dev.lib(provision_adv.o)
    0x00208bd4        -       0x00000008   Zero   RW         3862    .bss                mesh_dev.lib(proxy_protocol.o)
    0x00208bdc        -       0x0000000c   Zero   RW         3892    .bss                mesh_dev.lib(friendship_lpn.o)
    0x00208be8        -       0x00000024   Zero   RW         3920    .bss                mesh_dev.lib(heartbeat.o)
    0x00208c0c        -       0x0000002c   Zero   RW         3978    .bss                mesh_dev.lib(configuration_server.o)
    0x00208c38        -       0x00000008   Zero   RW         4066    .bss                mesh_dev.lib(transport_ping.o)
    0x00208c40        -       0x000000e4   Zero   RW         4145    .bss                c_w.l(rand.o)


    Execution Region OVERLAY_A (Exec base: 0x00208d24, Load base: 0x0082c8b0, Size: 0x000000d4, Max: 0xffffffff, OVERLAY)

    Exec Addr    Load Addr    Size         Type   Attr      Idx    E Section Name        Object

    0x00208d24   0x0082c8b0   0x000000d4   Code   RO           16    .app.overlay_a      system_rtl8762c.o


    Execution Region OVERLAY_B (Exec base: 0x00208d24, Load base: 0x0082c984, Size: 0x00000000, Max: 0xffffffff, OVERLAY)

    **** No section assigned to this execution region ****


    Execution Region OVERLAY_C (Exec base: 0x00208d24, Load base: 0x0082c984, Size: 0x00000000, Max: 0xffffffff, OVERLAY)

    **** No section assigned to this execution region ****


    Execution Region CACHE_DATA_ON (Exec base: 0x0021c000, Load base: 0x0082c984, Size: 0x00000000, Max: 0x00000000, OVERLAY)

    **** No section assigned to this execution region ****


    Execution Region app.bin (Exec base: 0x0080e000, Load base: 0x0080e000, Size: 0x00000400, Max: 0xffffffff, ABSOLUTE)

    Exec Addr    Load Addr    Size         Type   Attr      Idx    E Section Name        Object

    0x0080e000   0x0080e000   0x00000400   Data   RO           20    .app.flash.header   system_rtl8762c.o


    Execution Region APP_FLASH_HEADER_EXT (Exec base: 0x0080e400, Load base: 0x0080e400, Size: 0x00000000, Max: 0xffffffff, ABSOLUTE)

    **** No section assigned to this execution region ****


    Execution Region FLASH_START_ADDR (Exec base: 0x0080e400, Load base: 0x0080e400, Size: 0x00000008, Max: 0xffffffff, ABSOLUTE)

    Exec Addr    Load Addr    Size         Type   Attr      Idx    E Section Name        Object

    0x0080e400   0x0080e400   0x00000008   Code   RO            2    RESET               startup_rtl8762c.o


    Execution Region FLASH_TEXT (Exec base: 0x0080e408, Load base: 0x0080e408, Size: 0x0001de2c, Max: 0xffffffff, ABSOLUTE)

    Exec Addr    Load Addr    Size         Type   Attr      Idx    E Section Name        Object

    0x0080e408   0x0080e408   0x00000008   Code   RO         4150  * !!!main             c_w.l(__main.o)
    0x0080e410   0x0080e410   0x00000000   Code   RO         4142    .ARM.Collect$$_printf_percent$$00000000  c_w.l(_printf_percent.o)
    0x0080e410   0x0080e410   0x00000006   Code   RO         4141    .ARM.Collect$$_printf_percent$$0000000C  c_w.l(_printf_x.o)
    0x0080e416   0x0080e416   0x00000004   Code   RO         4209    .ARM.Collect$$_printf_percent$$00000017  c_w.l(_printf_percent_end.o)
    0x0080e41a   0x0080e41a   0x00000002   Code   RO         4310    .ARM.Collect$$libinit$$00000000  c_w.l(libinit.o)
    0x0080e41c   0x0080e41c   0x00000004   Code   RO         4210    .ARM.Collect$$libinit$$00000001  c_w.l(libinit2.o)
    0x0080e420   0x0080e420   0x00000000   Code   RO         4213    .ARM.Collect$$libinit$$00000004  c_w.l(libinit2.o)
    0x0080e420   0x0080e420   0x00000000   Code   RO         4216    .ARM.Collect$$libinit$$0000000A  c_w.l(libinit2.o)
    0x0080e420   0x0080e420   0x00000000   Code   RO         4218    .ARM.Collect$$libinit$$0000000C  c_w.l(libinit2.o)
    0x0080e420   0x0080e420   0x00000004   Code   RO         4219    .ARM.Collect$$libinit$$0000000D  c_w.l(libinit2.o)
    0x0080e424   0x0080e424   0x00000000   Code   RO         4220    .ARM.Collect$$libinit$$0000000E  c_w.l(libinit2.o)
    0x0080e424   0x0080e424   0x00000000   Code   RO         4223    .ARM.Collect$$libinit$$00000011  c_w.l(libinit2.o)
    0x0080e424   0x0080e424   0x00000000   Code   RO         4225    .ARM.Collect$$libinit$$00000013  c_w.l(libinit2.o)
    0x0080e424   0x0080e424   0x00000000   Code   RO         4227    .ARM.Collect$$libinit$$00000015  c_w.l(libinit2.o)
    0x0080e424   0x0080e424   0x00000000   Code   RO         4229    .ARM.Collect$$libinit$$00000017  c_w.l(libinit2.o)
    0x0080e424   0x0080e424   0x00000000   Code   RO         4231    .ARM.Collect$$libinit$$00000019  c_w.l(libinit2.o)
    0x0080e424   0x0080e424   0x00000000   Code   RO         4233    .ARM.Collect$$libinit$$0000001B  c_w.l(libinit2.o)
    0x0080e424   0x0080e424   0x00000000   Code   RO         4235    .ARM.Collect$$libinit$$0000001D  c_w.l(libinit2.o)
    0x0080e424   0x0080e424   0x00000000   Code   RO         4237    .ARM.Collect$$libinit$$0000001F  c_w.l(libinit2.o)
    0x0080e424   0x0080e424   0x00000000   Code   RO         4239    .ARM.Collect$$libinit$$00000021  c_w.l(libinit2.o)
    0x0080e424   0x0080e424   0x00000000   Code   RO         4241    .ARM.Collect$$libinit$$00000023  c_w.l(libinit2.o)
    0x0080e424   0x0080e424   0x00000000   Code   RO         4243    .ARM.Collect$$libinit$$00000025  c_w.l(libinit2.o)
    0x0080e424   0x0080e424   0x00000000   Code   RO         4247    .ARM.Collect$$libinit$$0000002C  c_w.l(libinit2.o)
    0x0080e424   0x0080e424   0x00000000   Code   RO         4249    .ARM.Collect$$libinit$$0000002E  c_w.l(libinit2.o)
    0x0080e424   0x0080e424   0x00000000   Code   RO         4251    .ARM.Collect$$libinit$$00000030  c_w.l(libinit2.o)
    0x0080e424   0x0080e424   0x00000000   Code   RO         4253    .ARM.Collect$$libinit$$00000032  c_w.l(libinit2.o)
    0x0080e424   0x0080e424   0x00000002   Code   RO         4254    .ARM.Collect$$libinit$$00000033  c_w.l(libinit2.o)
    0x0080e426   0x0080e426   0x00000000   Code   RO         4200    .ARM.Collect$$rtentry$$00000000  c_w.l(__rtentry.o)
    0x0080e426   0x0080e426   0x00000000   Code   RO         4271    .ARM.Collect$$rtentry$$00000002  c_w.l(__rtentry2.o)
    0x0080e426   0x0080e426   0x00000006   Code   RO         4283    .ARM.Collect$$rtentry$$00000004  c_w.l(__rtentry4.o)
    0x0080e42c   0x0080e42c   0x00000000   Code   RO         4273    .ARM.Collect$$rtentry$$00000009  c_w.l(__rtentry2.o)
    0x0080e42c   0x0080e42c   0x00000004   Code   RO         4274    .ARM.Collect$$rtentry$$0000000A  c_w.l(__rtentry2.o)
    0x0080e430   0x0080e430   0x00000000   Code   RO         4276    .ARM.Collect$$rtentry$$0000000C  c_w.l(__rtentry2.o)
    0x0080e430   0x0080e430   0x00000008   Code   RO         4277    .ARM.Collect$$rtentry$$0000000D  c_w.l(__rtentry2.o)
    0x0080e438   0x0080e438   0x00000290   Code   RO           15    .app.flash.text     system_rtl8762c.o
    0x0080e6c8   0x0080e6c8   0x00000006   Code   RO         1696    .app.flash.text     main.o
    0x0080e6ce   0x0080e6ce   0x00000002   PAD
    0x0080e6d0   0x0080e6d0   0x00000100   Code   RO         2404    .app.flash.text     gap_utils.lib(gap_config.o)
    0x0080e7d0   0x0080e7d0   0x00000034   Code   RO         4143    .emb_text           c_w.l(rand.o)
    0x0080e804   0x0080e804   0x00000050   Code   RO            3    .text               startup_rtl8762c.o
    0x0080e854   0x0080e854   0x00000168   Code   RO           18    .text               system_rtl8762c.o
    0x0080e9bc   0x0080e9bc   0x00000020   Code   RO          185    .text               rtl876x_io_dlps.o
    0x0080e9dc   0x0080e9dc   0x00000358   Code   RO          251    .text               rtl876x_rcc.o
    0x0080ed34   0x0080ed34   0x0000019c   Code   RO          279    .text               rtl876x_tim.o
    0x0080eed0   0x0080eed0   0x0000022c   Code   RO          306    .text               rtl876x_uart.o
    0x0080f0fc   0x0080f0fc   0x00000184   Code   RO          330    .text               rtl876x_gpio.o
    0x0080f280   0x0080f280   0x00000b3c   Code   RO          357    .text               dfu_server.o
    0x0080fdbc   0x0080fdbc   0x00000de0   Code   RO          551    .text               dfu_client.o
    0x00810b9c   0x00810b9c   0x0000029c   Code   RO          592    .text               ota_server.o
    0x00810e38   0x00810e38   0x00000af4   Code   RO          626    .text               ais_server.o
    0x0081192c   0x0081192c   0x00000284   Code   RO          699    .text               dis.o
    0x00811bb0   0x00811bb0   0x000004c0   Code   RO          730    .text               health_server.o
    0x00812070   0x00812070   0x000004b8   Code   RO          759    .text               firmware_update_server.o
    0x00812528   0x00812528   0x000007b4   Code   RO          791    .text               object_transfer_server.o
    0x00812cdc   0x00812cdc   0x00000380   Code   RO          825    .text               generic_on_off_server.o
    0x0081305c   0x0081305c   0x00000258   Code   RO          949    .text               generic_transition_time.o
    0x008132b4   0x008132b4   0x000001b0   Code   RO         1354    .text               delay_execution.o
    0x00813464   0x00813464   0x000002c4   Code   RO         1382    .text               ali_model.o
    0x00813728   0x00813728   0x000002e4   Code   RO         1410    .text               dfu_updater_app.o
    0x00813a0c   0x00813a0c   0x00000324   Code   RO         1444    .text               dimmable_light.o
    0x00813d30   0x00813d30   0x00000220   Code   RO         1485    .text               mp_cmd_parse.o
    0x00813f50   0x00813f50   0x0000007c   Code   RO         1534    .text               overlay_mgr.o
    0x00813fcc   0x00813fcc   0x00000174   Code   RO         1555    .text               light_effect_app.o
    0x00814140   0x00814140   0x00000094   Code   RO         1592    .text               light_storage_app.o
    0x008141d4   0x008141d4   0x000007e0   Code   RO         1620    .text               light_cwrgb_app.o
    0x008149b4   0x008149b4   0x00000170   Code   RO         1652    .text               app_task.o
    0x00814b24   0x00814b24   0x0000030c   Code   RO         1697    .text               main.o
    0x00814e30   0x00814e30   0x0000077c   Code   RO         1777    .text               strip_app.o
    0x008155ac   0x008155ac   0x00000074   Code   RO         1824    .text               mp_cmd.o
    0x00815620   0x00815620   0x000000a8   Code   RO         1846    .text               user_data.o
    0x008156c8   0x008156c8   0x0000047c   Code   RO         1861    .text               strip_timer.o
    0x00815b44   0x00815b44   0x00000c68   Code   RO         1901    .text               main_app.o
    0x008167ac   0x008167ac   0x000003c8   Code   RO         1956    .text               silent_dfu_flash.o
    0x00816b74   0x00816b74   0x00000458   Code   RO         2028    .text               light_controller_app.o
    0x00816fcc   0x00816fcc   0x00000188   Code   RO         2055    .text               light_swtimer.o
    0x00817154   0x00817154   0x00000044   Code   RO         2083    .text               light_dlps_ctrl.o
    0x00817198   0x00817198   0x000000bc   Code   RO         2454    .text               gap_utils.lib(gap_lib.o)
    0x00817254   0x00817254   0x00000548   Code   RO         2483    .text               gap_utils.lib(gap_lib_patch.o)
    0x0081779c   0x0081779c   0x000000b4   Code   RO         2544    .text               mesh_dev.lib(platform_os.o)
    0x00817850   0x00817850   0x00000228   Code   RO         2584    .text               mesh_dev.lib(platform_misc.o)
    0x00817a78   0x00817a78   0x00000018   Code   RO         2656    .text               mesh_dev.lib(platform_diagnose.o)
    0x00817a90   0x00817a90   0x000007fc   Code   RO         2674    .text               mesh_dev.lib(aes.o)
    0x0081828c   0x0081828c   0x000003f0   Code   RO         2695    .text               mesh_dev.lib(data_uart.o)
    0x0081867c   0x0081867c   0x00000ba8   Code   RO         2741    .text               mesh_dev.lib(gap_scheduler.o)
    0x00819224   0x00819224   0x00000308   Code   RO         2906    .text               mesh_dev.lib(mesh_access.o)
    0x0081952c   0x0081952c   0x0000038c   Code   RO         2959    .text               mesh_dev.lib(mesh_bearer.o)
    0x008198b8   0x008198b8   0x000005cc   Code   RO         3028    .text               mesh_dev.lib(mesh_beacon.o)
    0x00819e84   0x00819e84   0x00000438   Code   RO         3063    .text               mesh_dev.lib(mesh_common.o)
    0x0081a2bc   0x0081a2bc   0x00000a50   Code   RO         3107    .text               mesh_dev.lib(mesh_provision.o)
    0x0081ad0c   0x0081ad0c   0x0000059c   Code   RO         3173    .text               mesh_dev.lib(mesh_service.o)
    0x0081b2a8   0x0081b2a8   0x00001cac   Code   RO         3222    .text               mesh_dev.lib(mesh_node.o)
    0x0081cf54   0x0081cf54   0x000019d0   Code   RO         3283    .text               mesh_dev.lib(friendship_fn.o)
    0x0081e924   0x0081e924   0x000008a8   Code   RO         3312    .text               mesh_dev.lib(provision_device.o)
    0x0081f1cc   0x0081f1cc   0x00000ea0   Code   RO         3338    .text               mesh_dev.lib(mesh_flash.o)
    0x0082006c   0x0082006c   0x000002ec   Code   RO         3502    .text               gap_utils.lib(gap_vendor_cmd.o)
    0x00820358   0x00820358   0x00000072   Code   RO         3518    .text               mesh_dev.lib(platform_list.o)
    0x008203ca   0x008203ca   0x00000002   PAD
    0x008203cc   0x008203cc   0x00000174   Code   RO         3530    .text               mesh_dev.lib(aes_cmac.o)
    0x00820540   0x00820540   0x0000033a   Code   RO         3546    .text               mesh_dev.lib(ccm.o)
    0x0082087a   0x0082087a   0x00000002   PAD
    0x0082087c   0x0082087c   0x00000dba   Code   RO         3561    .text               mesh_dev.lib(ecc.o)
    0x00821636   0x00821636   0x00000002   PAD
    0x00821638   0x00821638   0x0000017c   Code   RO         3587    .text               mesh_dev.lib(provision_server.o)
    0x008217b4   0x008217b4   0x00000098   Code   RO         3619    .text               mesh_dev.lib(provision_service.o)
    0x0082184c   0x0082184c   0x00000184   Code   RO         3651    .text               mesh_dev.lib(proxy_server.o)
    0x008219d0   0x008219d0   0x000000ac   Code   RO         3680    .text               mesh_dev.lib(proxy_service.o)
    0x00821a7c   0x00821a7c   0x00001818   Code   RO         3710    .text               mesh_dev.lib(mesh_transport.o)
    0x00823294   0x00823294   0x00000818   Code   RO         3740    .text               mesh_dev.lib(mesh_network.o)
    0x00823aac   0x00823aac   0x00000e78   Code   RO         3769    .text               mesh_dev.lib(mesh_security.o)
    0x00824924   0x00824924   0x00000220   Code   RO         3795    .text               mesh_dev.lib(mesh_rpl.o)
    0x00824b44   0x00824b44   0x00000c9c   Code   RO         3827    .text               mesh_dev.lib(provision_adv.o)
    0x008257e0   0x008257e0   0x00000ac4   Code   RO         3860    .text               mesh_dev.lib(proxy_protocol.o)
    0x008262a4   0x008262a4   0x00000f58   Code   RO         3890    .text               mesh_dev.lib(friendship_lpn.o)
    0x008271fc   0x008271fc   0x00000494   Code   RO         3918    .text               mesh_dev.lib(heartbeat.o)
    0x00827690   0x00827690   0x00001c9c   Code   RO         3976    .text               mesh_dev.lib(configuration_server.o)
    0x0082932c   0x0082932c   0x00000048   Code   RO         4035    .text               mesh_dev.lib(crc8ets.o)
    0x00829374   0x00829374   0x000001e8   Code   RO         4064    .text               mesh_dev.lib(transport_ping.o)
    0x0082955c   0x0082955c   0x00000026   Code   RO         4088    .text               c_w.l(llshl.o)
    0x00829582   0x00829582   0x00000026   Code   RO         4090    .text               c_w.l(llushr.o)
    0x008295a8   0x008295a8   0x00000028   Code   RO         4094    .text               c_w.l(noretval__2sprintf.o)
    0x008295d0   0x008295d0   0x0000004e   Code   RO         4098    .text               c_w.l(_printf_pad.o)
    0x0082961e   0x0082961e   0x00000002   PAD
    0x00829620   0x00829620   0x00000058   Code   RO         4103    .text               c_w.l(_printf_hex_int.o)
    0x00829678   0x00829678   0x00000138   Code   RO         4133    .text               c_w.l(__printf_flags_wp.o)
    0x008297b0   0x008297b0   0x0000003c   Code   RO         4144    .text               c_w.l(rand.o)
    0x008297ec   0x008297ec   0x00000096   Code   RO         4148    .text               c_w.l(strncmp.o)
    0x00829882   0x00829882   0x000000b2   Code   RO         4203    .text               c_w.l(_printf_intcommon.o)
    0x00829934   0x00829934   0x00000030   Code   RO         4205    .text               c_w.l(_printf_char_common.o)
    0x00829964   0x00829964   0x0000000a   Code   RO         4207    .text               c_w.l(_sputc.o)
    0x0082996e   0x0082996e   0x00000002   PAD
    0x00829970   0x00829970   0x00000060   Code   RO         2345    i.UpdateMAC         bee2_sdk.lib(rtl876x_lib_platform.o)
    0x008299d0   0x008299d0   0x00000118   Code   RO         4182    i.__hardfp_ceil     m_wm.l(ceil.o)
    0x00829ae8   0x00829ae8   0x0000004c   Code   RO         3364    i._cfg_check_header_valid  bee2_sdk.lib(rtl876x_lib_cfg_int.o)
    0x00829b34   0x00829b34   0x00000090   Code   RO         3365    i._cfg_write_to_flash  bee2_sdk.lib(rtl876x_lib_cfg_int.o)
    0x00829bc4   0x00829bc4   0x0000000e   Code   RO         4131    i._is_digit         c_w.l(__printf_wp.o)
    0x00829bd2   0x00829bd2   0x00000002   PAD
    0x00829bd4   0x00829bd4   0x00000134   Code   RO         3366    i.cfg_add_item      bee2_sdk.lib(rtl876x_lib_cfg_int.o)
    0x00829d08   0x00829d08   0x00000108   Code   RO         3368    i.cfg_find_item     bee2_sdk.lib(rtl876x_lib_cfg_int.o)
    0x00829e10   0x00829e10   0x0000004c   Code   RO         2112    i.flash_lock_new    bee2_sdk.lib(rtl8762c_lib_flash.o)
    0x00829e5c   0x00829e5c   0x00000026   Code   RO         2124    i.flash_set_block_protect_locked  bee2_sdk.lib(rtl8762c_lib_flash.o)
    0x00829e82   0x00829e82   0x0000002a   Code   RO         2125    i.flash_sw_protect_unlock_by_addr_locked  bee2_sdk.lib(rtl8762c_lib_flash.o)
    0x00829eac   0x00829eac   0x000000b4   Code   RO         2126    i.flash_sw_protect_unlock_by_addr_new  bee2_sdk.lib(rtl8762c_lib_flash.o)
    0x00829f60   0x00829f60   0x00000038   Code   RO         2127    i.flash_unlock_new  bee2_sdk.lib(rtl8762c_lib_flash.o)
    0x00829f98   0x00829f98   0x00000062   Code   RO         4152    x$fpl$d2f           fz_wm.l(d2f.o)
    0x00829ffa   0x00829ffa   0x00000002   PAD
    0x00829ffc   0x00829ffc   0x00000150   Code   RO         4154    x$fpl$dadd          fz_wm.l(daddsub_clz.o)
    0x0082a14c   0x0082a14c   0x00000018   Code   RO         4294    x$fpl$dcmpinf       fz_wm.l(dcmpi.o)
    0x0082a164   0x0082a164   0x000002b0   Code   RO         4161    x$fpl$ddiv          fz_wm.l(ddiv.o)
    0x0082a414   0x0082a414   0x0000005a   Code   RO         4168    x$fpl$dfixu         fz_wm.l(dfixu.o)
    0x0082a46e   0x0082a46e   0x0000002e   Code   RO         4173    x$fpl$dflt          fz_wm.l(dflt_clz.o)
    0x0082a49c   0x0082a49c   0x00000026   Code   RO         4172    x$fpl$dfltu         fz_wm.l(dflt_clz.o)
    0x0082a4c2   0x0082a4c2   0x00000002   PAD
    0x0082a4c4   0x0082a4c4   0x00000078   Code   RO         4255    x$fpl$dleqf         fz_wm.l(dleqf.o)
    0x0082a53c   0x0082a53c   0x00000154   Code   RO         4178    x$fpl$dmul          fz_wm.l(dmul.o)
    0x0082a690   0x0082a690   0x0000009c   Code   RO         4257    x$fpl$dnaninf       fz_wm.l(dnaninf.o)
    0x0082a72c   0x0082a72c   0x0000000c   Code   RO         4259    x$fpl$dretinf       fz_wm.l(dretinf.o)
    0x0082a738   0x0082a738   0x0000006c   Code   RO         4261    x$fpl$drleqf        fz_wm.l(drleqf.o)
    0x0082a7a4   0x0082a7a4   0x00000016   Code   RO         4155    x$fpl$drsb          fz_wm.l(daddsub_clz.o)
    0x0082a7ba   0x0082a7ba   0x00000002   PAD
    0x0082a7bc   0x0082a7bc   0x000001d4   Code   RO         4156    x$fpl$dsub          fz_wm.l(daddsub_clz.o)
    0x0082a990   0x0082a990   0x00000056   Code   RO         4180    x$fpl$f2d           fz_wm.l(f2d.o)
    0x0082a9e6   0x0082a9e6   0x0000008c   Code   RO         4265    x$fpl$fnaninf       fz_wm.l(fnaninf.o)
    0x0082aa72   0x0082aa72   0x0000000a   Code   RO         4296    x$fpl$fpinit        fz_wm.l(fpinit.o)
    0x0082aa7c   0x0082aa7c   0x0000000a   Code   RO         4267    x$fpl$fretinf       fz_wm.l(fretinf.o)
    0x0082aa86   0x0082aa86   0x00000000   Code   RO         4269    x$fpl$usenofp       fz_wm.l(usenofp.o)
    0x0082aa86   0x0082aa86   0x00000002   PAD
    0x0082aa88   0x0082aa88   0x00000020   Data   RO           22    .constdata          system_rtl8762c.o
    0x0082aaa8   0x0082aaa8   0x0000010c   Data   RO           23    .constdata          system_rtl8762c.o
    0x0082abb4   0x0082abb4   0x00000010   Data   RO          362    .constdata          dfu_server.o
    0x0082abc4   0x0082abc4   0x000000dd   Data   RO          363    .constdata          dfu_server.o
    0x0082aca1   0x0082aca1   0x00000003   PAD
    0x0082aca4   0x0082aca4   0x0000004e   Data   RO          554    .constdata          dfu_client.o
    0x0082acf2   0x0082acf2   0x00000010   Data   RO          596    .constdata          ota_server.o
    0x0082ad02   0x0082ad02   0x00000002   PAD
    0x0082ad04   0x0082ad04   0x00000220   Data   RO          597    .constdata          ota_server.o
    0x0082af24   0x0082af24   0x000001d8   Data   RO          629    .constdata          ais_server.o
    0x0082b0fc   0x0082b0fc   0x00000220   Data   RO          702    .constdata          dis.o
    0x0082b31c   0x0082b31c   0x00000035   Data   RO          732    .constdata          health_server.o
    0x0082b351   0x0082b351   0x00000037   Data   RO          762    .constdata          firmware_update_server.o
    0x0082b388   0x0082b388   0x0000006d   Data   RO          795    .constdata          object_transfer_server.o
    0x0082b3f5   0x0082b3f5   0x0000001a   Data   RO          827    .constdata          generic_on_off_server.o
    0x0082b40f   0x0082b40f   0x00000001   PAD
    0x0082b410   0x0082b410   0x0000001a   Data   RO          952    .constdata          generic_transition_time.o
    0x0082b42a   0x0082b42a   0x0000001c   Data   RO         1357    .constdata          delay_execution.o
    0x0082b446   0x0082b446   0x0000003f   Data   RO         1383    .constdata          ali_model.o
    0x0082b485   0x0082b485   0x0000000c   Data   RO         1488    .constdata          mp_cmd_parse.o
    0x0082b491   0x0082b491   0x00000003   PAD
    0x0082b494   0x0082b494   0x00000004   Data   RO         1556    .constdata          light_effect_app.o
    0x0082b498   0x0082b498   0x0000000c   Data   RO         1593    .constdata          light_storage_app.o
    0x0082b4a4   0x0082b4a4   0x00000038   Data   RO         1655    .constdata          app_task.o
    0x0082b4dc   0x0082b4dc   0x00000032   Data   RO         1700    .constdata          main.o
    0x0082b50e   0x0082b50e   0x00000017   Data   RO         1779    .constdata          strip_app.o
    0x0082b525   0x0082b525   0x00000003   PAD
    0x0082b528   0x0082b528   0x00000010   Data   RO         1826    .constdata          mp_cmd.o
    0x0082b538   0x0082b538   0x00000010   Data   RO         1904    .constdata          main_app.o
    0x0082b548   0x0082b548   0x00000014   Data   RO         2545    .constdata          mesh_dev.lib(platform_os.o)
    0x0082b55c   0x0082b55c   0x000002ff   Data   RO         2676    .constdata          mesh_dev.lib(aes.o)
    0x0082b85b   0x0082b85b   0x00000001   PAD
    0x0082b85c   0x0082b85c   0x00000060   Data   RO         2698    .constdata          mesh_dev.lib(data_uart.o)
    0x0082b8bc   0x0082b8bc   0x00000025   Data   RO         2744    .constdata          mesh_dev.lib(gap_scheduler.o)
    0x0082b8e1   0x0082b8e1   0x00000015   Data   RO         2962    .constdata          mesh_dev.lib(mesh_bearer.o)
    0x0082b8f6   0x0082b8f6   0x0000002a   Data   RO         3066    .constdata          mesh_dev.lib(mesh_common.o)
    0x0082b920   0x0082b920   0x0000000e   Data   RO         3110    .constdata          mesh_dev.lib(mesh_provision.o)
    0x0082b92e   0x0082b92e   0x0000000b   Data   RO         3176    .constdata          mesh_dev.lib(mesh_service.o)
    0x0082b939   0x0082b939   0x00000003   PAD
    0x0082b93c   0x0082b93c   0x00000093   Data   RO         3225    .constdata          mesh_dev.lib(mesh_node.o)
    0x0082b9cf   0x0082b9cf   0x00000017   Data   RO         3286    .constdata          mesh_dev.lib(friendship_fn.o)
    0x0082b9e6   0x0082b9e6   0x00000002   PAD
    0x0082b9e8   0x0082b9e8   0x00000004   Data   RO         3314    .constdata          mesh_dev.lib(provision_device.o)
    0x0082b9ec   0x0082b9ec   0x00000035   Data   RO         3341    .constdata          mesh_dev.lib(mesh_flash.o)
    0x0082ba21   0x0082ba21   0x0000002e   Data   RO         3369    .constdata          bee2_sdk.lib(rtl876x_lib_cfg_int.o)
    0x0082ba4f   0x0082ba4f   0x00000001   PAD
    0x0082ba50   0x0082ba50   0x00000060   Data   RO         3562    .constdata          mesh_dev.lib(ecc.o)
    0x0082bab0   0x0082bab0   0x000000b4   Data   RO         3590    .constdata          mesh_dev.lib(provision_server.o)
    0x0082bb64   0x0082bb64   0x000000b4   Data   RO         3654    .constdata          mesh_dev.lib(proxy_server.o)
    0x0082bc18   0x0082bc18   0x00000039   Data   RO         3713    .constdata          mesh_dev.lib(mesh_transport.o)
    0x0082bc51   0x0082bc51   0x00000009   Data   RO         3743    .constdata          mesh_dev.lib(mesh_network.o)
    0x0082bc5a   0x0082bc5a   0x00000009   Data   RO         3798    .constdata          mesh_dev.lib(mesh_rpl.o)
    0x0082bc63   0x0082bc63   0x0000001b   Data   RO         3830    .constdata          mesh_dev.lib(provision_adv.o)
    0x0082bc7e   0x0082bc7e   0x0000005d   Data   RO         3863    .constdata          mesh_dev.lib(proxy_protocol.o)
    0x0082bcdb   0x0082bcdb   0x00000009   Data   RO         3893    .constdata          mesh_dev.lib(friendship_lpn.o)
    0x0082bce4   0x0082bce4   0x00000004   Data   RO         3921    .constdata          mesh_dev.lib(heartbeat.o)
    0x0082bce8   0x0082bce8   0x000000d8   Data   RO         3979    .constdata          mesh_dev.lib(configuration_server.o)
    0x0082bdc0   0x0082bdc0   0x00000100   Data   RO         4036    .constdata          mesh_dev.lib(crc8ets.o)
    0x0082bec0   0x0082bec0   0x00000028   Data   RO         4104    .constdata          c_w.l(_printf_hex_int.o)
    0x0082bee8   0x0082bee8   0x00000011   Data   RO         4134    .constdata          c_w.l(__printf_flags_wp.o)
    0x0082bef9   0x0082bef9   0x00000003   PAD
    0x0082befc   0x0082befc   0x00000220   Data   RO           24    .conststring        system_rtl8762c.o
    0x0082c11c   0x0082c11c   0x00000019   Data   RO         1536    .conststring        overlay_mgr.o
    0x0082c135   0x0082c135   0x00000003   PAD
    0x0082c138   0x0082c138   0x00000090   Data   RO         1780    .conststring        strip_app.o
    0x0082c1c8   0x0082c1c8   0x0000006b   Data   RO         1905    .conststring        main_app.o
    0x0082c233   0x0082c233   0x00000001   PAD
    0x0082c234   0x0082c234   0x00000000   Data   RO         4354    Region$$Table       anon$$obj.o



  Load Region LOAD_APP_TRACE (Base: 0x08800000, Size: 0x00009984, Max: 0x00400000, ABSOLUTE)

    Execution Region App.trace (Exec base: 0x08800000, Load base: 0x08800000, Size: 0x00009984, Max: 0x00400000, ABSOLUTE)

    Exec Addr    Load Addr    Size         Type   Attr      Idx    E Section Name        Object

    0x08800000   0x08800000   0x000000e6   Data   RO           19    .TRACE              system_rtl8762c.o
    0x088000e6   0x088000e6   0x00000002   PAD
    0x088000e8   0x088000e8   0x0000002a   Data   RO          186    .TRACE              rtl876x_io_dlps.o
    0x08800112   0x08800112   0x00000002   PAD
    0x08800114   0x08800114   0x0000063b   Data   RO          358    .TRACE              dfu_server.o
    0x0880074f   0x0880074f   0x00000001   PAD
    0x08800750   0x08800750   0x000007d4   Data   RO          552    .TRACE              dfu_client.o
    0x08800f24   0x08800f24   0x00000153   Data   RO          593    .TRACE              ota_server.o
    0x08801077   0x08801077   0x00000001   PAD
    0x08801078   0x08801078   0x00000451   Data   RO          627    .TRACE              ais_server.o
    0x088014c9   0x088014c9   0x00000003   PAD
    0x088014cc   0x088014cc   0x0000009e   Data   RO          700    .TRACE              dis.o
    0x0880156a   0x0880156a   0x00000002   PAD
    0x0880156c   0x0880156c   0x0000005a   Data   RO          731    .TRACE              health_server.o
    0x088015c6   0x088015c6   0x00000002   PAD
    0x088015c8   0x088015c8   0x00000090   Data   RO          760    .TRACE              firmware_update_server.o
    0x08801658   0x08801658   0x0000030b   Data   RO          792    .TRACE              object_transfer_server.o
    0x08801963   0x08801963   0x00000001   PAD
    0x08801964   0x08801964   0x000000b1   Data   RO          826    .TRACE              generic_on_off_server.o
    0x08801a15   0x08801a15   0x00000003   PAD
    0x08801a18   0x08801a18   0x00000053   Data   RO          864    .TRACE              generic_power_on_off_server.o
    0x08801a6b   0x08801a6b   0x00000001   PAD
    0x08801a6c   0x08801a6c   0x00000059   Data   RO          892    .TRACE              generic_power_on_off_setup_server.o
    0x08801ac5   0x08801ac5   0x00000003   PAD
    0x08801ac8   0x08801ac8   0x000000b0   Data   RO          920    .TRACE              generic_level_server.o
    0x08801b78   0x08801b78   0x0000006b   Data   RO          950    .TRACE              generic_transition_time.o
    0x08801be3   0x08801be3   0x00000001   PAD
    0x08801be4   0x08801be4   0x000000b2   Data   RO          982    .TRACE              light_lightness_server.o
    0x08801c96   0x08801c96   0x00000002   PAD
    0x08801c98   0x08801c98   0x00000054   Data   RO         1018    .TRACE              light_lightness_setup_server.o
    0x08801cec   0x08801cec   0x000000a8   Data   RO         1046    .TRACE              light_ctl_server.o
    0x08801d94   0x08801d94   0x000000c0   Data   RO         1076    .TRACE              light_ctl_temperature_server.o
    0x08801e54   0x08801e54   0x000000a8   Data   RO         1103    .TRACE              light_hsl_server.o
    0x08801efc   0x08801efc   0x000000b0   Data   RO         1133    .TRACE              light_hsl_hue_server.o
    0x08801fac   0x08801fac   0x000000bb   Data   RO         1160    .TRACE              light_hsl_saturation_server.o
    0x08802067   0x08802067   0x00000001   PAD
    0x08802068   0x08802068   0x0000004e   Data   RO         1187    .TRACE              light_hsl_setup_server.o
    0x088020b6   0x088020b6   0x00000002   PAD
    0x088020b8   0x088020b8   0x00000058   Data   RO         1242    .TRACE              generic_default_transition_time_server.o
    0x08802110   0x08802110   0x000000a0   Data   RO         1271    .TRACE              scene_server.o
    0x088021b0   0x088021b0   0x0000004e   Data   RO         1301    .TRACE              light_ctl_setup_server.o
    0x088021fe   0x088021fe   0x00000002   PAD
    0x08802200   0x08802200   0x000000a4   Data   RO         1326    .TRACE              scene_setup_server.o
    0x088022a4   0x088022a4   0x00000125   Data   RO         1355    .TRACE              delay_execution.o
    0x088023c9   0x088023c9   0x00000003   PAD
    0x088023cc   0x088023cc   0x00000133   Data   RO         1411    .TRACE              dfu_updater_app.o
    0x088024ff   0x088024ff   0x00000001   PAD
    0x08802500   0x08802500   0x0000007e   Data   RO         1445    .TRACE              dimmable_light.o
    0x0880257e   0x0880257e   0x00000002   PAD
    0x08802580   0x08802580   0x000000e6   Data   RO         1486    .TRACE              mp_cmd_parse.o
    0x08802666   0x08802666   0x00000002   PAD
    0x08802668   0x08802668   0x00000038   Data   RO         1653    .TRACE              app_task.o
    0x088026a0   0x088026a0   0x00000037   Data   RO         1698    .TRACE              main.o
    0x088026d7   0x088026d7   0x00000001   PAD
    0x088026d8   0x088026d8   0x0000007d   Data   RO         1825    .TRACE              mp_cmd.o
    0x08802755   0x08802755   0x00000003   PAD
    0x08802758   0x08802758   0x0000003d   Data   RO         1862    .TRACE              strip_timer.o
    0x08802795   0x08802795   0x00000003   PAD
    0x08802798   0x08802798   0x00000c1c   Data   RO         1902    .TRACE              main_app.o
    0x088033b4   0x088033b4   0x0000028b   Data   RO         1957    .TRACE              silent_dfu_flash.o
    0x0880363f   0x0880363f   0x00000001   PAD
    0x08803640   0x08803640   0x0000005e   Data   RO         2029    .TRACE              light_controller_app.o
    0x0880369e   0x0880369e   0x00000002   PAD
    0x088036a0   0x088036a0   0x0000009a   Data   RO         2056    .TRACE              light_swtimer.o
    0x0880373a   0x0880373a   0x00000002   PAD
    0x0880373c   0x0880373c   0x00000164   Data   RO         2350    .TRACE              bee2_sdk.lib(rtl876x_lib_platform.o)
    0x088038a0   0x088038a0   0x00000193   Data   RO         2406    .TRACE              gap_utils.lib(gap_config.o)
    0x08803a33   0x08803a33   0x00000001   PAD
    0x08803a34   0x08803a34   0x000001d8   Data   RO         2455    .TRACE              gap_utils.lib(gap_lib.o)
    0x08803c0c   0x08803c0c   0x000002d4   Data   RO         2484    .TRACE              gap_utils.lib(gap_lib_patch.o)
    0x08803ee0   0x08803ee0   0x00000027   Data   RO         2585    .TRACE              mesh_dev.lib(platform_misc.o)
    0x08803f07   0x08803f07   0x00000001   PAD
    0x08803f08   0x08803f08   0x00000039   Data   RO         2696    .TRACE              mesh_dev.lib(data_uart.o)
    0x08803f41   0x08803f41   0x00000003   PAD
    0x08803f44   0x08803f44   0x000003bd   Data   RO         2742    .TRACE              mesh_dev.lib(gap_scheduler.o)
    0x08804301   0x08804301   0x00000003   PAD
    0x08804304   0x08804304   0x00000130   Data   RO         2907    .TRACE              mesh_dev.lib(mesh_access.o)
    0x08804434   0x08804434   0x000000f6   Data   RO         2960    .TRACE              mesh_dev.lib(mesh_bearer.o)
    0x0880452a   0x0880452a   0x00000002   PAD
    0x0880452c   0x0880452c   0x000001b8   Data   RO         3029    .TRACE              mesh_dev.lib(mesh_beacon.o)
    0x088046e4   0x088046e4   0x00000226   Data   RO         3064    .TRACE              mesh_dev.lib(mesh_common.o)
    0x0880490a   0x0880490a   0x00000002   PAD
    0x0880490c   0x0880490c   0x000006d7   Data   RO         3108    .TRACE              mesh_dev.lib(mesh_provision.o)
    0x08804fe3   0x08804fe3   0x00000001   PAD
    0x08804fe4   0x08804fe4   0x000001af   Data   RO         3174    .TRACE              mesh_dev.lib(mesh_service.o)
    0x08805193   0x08805193   0x00000001   PAD
    0x08805194   0x08805194   0x000007f9   Data   RO         3223    .TRACE              mesh_dev.lib(mesh_node.o)
    0x0880598d   0x0880598d   0x00000003   PAD
    0x08805990   0x08805990   0x00000a6d   Data   RO         3284    .TRACE              mesh_dev.lib(friendship_fn.o)
    0x088063fd   0x088063fd   0x00000003   PAD
    0x08806400   0x08806400   0x000002e4   Data   RO         3313    .TRACE              mesh_dev.lib(provision_device.o)
    0x088066e4   0x088066e4   0x000001aa   Data   RO         3339    .TRACE              mesh_dev.lib(mesh_flash.o)
    0x0880688e   0x0880688e   0x00000002   PAD
    0x08806890   0x08806890   0x00000029   Data   RO         3464    .TRACE              bee2_sdk.lib(xtx_flash_otp.o)
    0x088068b9   0x088068b9   0x00000003   PAD
    0x088068bc   0x088068bc   0x00000142   Data   RO         3588    .TRACE              mesh_dev.lib(provision_server.o)
    0x088069fe   0x088069fe   0x00000002   PAD
    0x08806a00   0x08806a00   0x00000033   Data   RO         3620    .TRACE              mesh_dev.lib(provision_service.o)
    0x08806a33   0x08806a33   0x00000001   PAD
    0x08806a34   0x08806a34   0x0000016f   Data   RO         3652    .TRACE              mesh_dev.lib(proxy_server.o)
    0x08806ba3   0x08806ba3   0x00000001   PAD
    0x08806ba4   0x08806ba4   0x00000abd   Data   RO         3711    .TRACE              mesh_dev.lib(mesh_transport.o)
    0x08807661   0x08807661   0x00000003   PAD
    0x08807664   0x08807664   0x000003f7   Data   RO         3741    .TRACE              mesh_dev.lib(mesh_network.o)
    0x08807a5b   0x08807a5b   0x00000001   PAD
    0x08807a5c   0x08807a5c   0x00000b8a   Data   RO         3770    .TRACE              mesh_dev.lib(mesh_security.o)
    0x088085e6   0x088085e6   0x00000002   PAD
    0x088085e8   0x088085e8   0x000000d5   Data   RO         3796    .TRACE              mesh_dev.lib(mesh_rpl.o)
    0x088086bd   0x088086bd   0x00000003   PAD
    0x088086c0   0x088086c0   0x00000864   Data   RO         3828    .TRACE              mesh_dev.lib(provision_adv.o)
    0x08808f24   0x08808f24   0x000003dd   Data   RO         3861    .TRACE              mesh_dev.lib(proxy_protocol.o)
    0x08809301   0x08809301   0x00000003   PAD
    0x08809304   0x08809304   0x0000044e   Data   RO         3891    .TRACE              mesh_dev.lib(friendship_lpn.o)
    0x08809752   0x08809752   0x00000002   PAD
    0x08809754   0x08809754   0x0000015b   Data   RO         3919    .TRACE              mesh_dev.lib(heartbeat.o)
    0x088098af   0x088098af   0x00000001   PAD
    0x088098b0   0x088098b0   0x00000038   Data   RO         3977    .TRACE              mesh_dev.lib(configuration_server.o)
    0x088098e8   0x088098e8   0x00000099   Data   RO         4065    .TRACE              mesh_dev.lib(transport_ping.o)


==============================================================================

Image component sizes


      Code (inc. data)   RO Data    RW Data    ZI Data      Debug   Object Name

      2804        198       1577          0         60      15936   ais_server.o
       708         14         63          0          0      15525   ali_model.o
       368         24        112          0         12       4549   app_task.o
       432         32        321          0          4       3690   delay_execution.o
      3552        350       2082          2         60      26179   dfu_client.o
      2876        196       1832          1         76      94114   dfu_server.o
       740         54        307          0         40       4352   dfu_updater_app.o
       804         48        126         16          8       8135   dimmable_light.o
       644         50        702         46        132       5740   dis.o
      1208         38        199          0         80       9618   firmware_update_server.o
         0          0         88          0          0       4679   generic_default_transition_time_server.o
         0          0        176          0          0       9703   generic_level_server.o
       896         36        203          0          0      10407   generic_on_off_server.o
         0          0         83          0          0       4343   generic_power_on_off_server.o
         0          0         89          0          0       3348   generic_power_on_off_setup_server.o
       600         24        133          0          8       6615   generic_transition_time.o
      1216         36        143          0          0      15151   health_server.o
      1112         36         94          0        244       6990   light_controller_app.o
         0          0        168          0          0      14666   light_ctl_server.o
         0          0         78          0          0       2045   light_ctl_setup_server.o
         0          0        192          0          0       6075   light_ctl_temperature_server.o
      2016         64          0         80         14      17251   light_cwrgb_app.o
        68          6          0          0          4       1544   light_dlps_ctrl.o
       372          4          4          0          0       5945   light_effect_app.o
         0          0        176          0          0       6668   light_hsl_hue_server.o
         0          0        187          0          0       6962   light_hsl_saturation_server.o
         0          0        168          0          0      15035   light_hsl_server.o
         0          0         78          0          0       8289   light_hsl_setup_server.o
         0          0        178          0          0      16124   light_lightness_server.o
         0          0         84          0          0       6655   light_lightness_setup_server.o
       148          4         12          0          0       3274   light_storage_app.o
       392         60        154          0          8       3304   light_swtimer.o
       786         74        105          0         40       7040   main.o
      3176        512       3223         11         20      16750   main_app.o
       116         16        141          0          0       2121   mp_cmd.o
       544         20        242          0         12       4163   mp_cmd_parse.o
      1972         52        888          0         96      13316   object_transfer_server.o
       668         22        899          0         56       5104   ota_server.o
       124         10         25        108          8       3548   overlay_mgr.o
       388         10          0          0          0       7916   rtl876x_gpio.o
       804         40         42          0        264      14145   rtl876x_io_dlps.o
       856         32          0          0          0       3157   rtl876x_rcc.o
       412         12          0          0          0       6393   rtl876x_tim.o
       556         34          0          0          0       3871   rtl876x_uart.o
         0          0        160          0          0      11032   scene_server.o
         0          0        164          0          0       5835   scene_setup_server.o
       968         26        651          1          4       6386   silent_dfu_flash.o
        88         66        244          0          0       1008   startup_rtl8762c.o
      1916        218        167          8        104      25172   strip_app.o
      1148        106         61          0        336      10520   strip_timer.o
      1520        266       2098          4         31      81151   system_rtl8762c.o
       168         10          0          0          0       2255   user_data.o

    ----------------------------------------------------------------------
     37168       2800      18984        280       1724     593794   Object Totals
         0          0          0          0          0          0   (incl. Generated)
         2          0         65          3          3          0   (incl. Padding)

    ----------------------------------------------------------------------

      Code (inc. data)   RO Data    RW Data    ZI Data      Debug   Library Member Name

       392         30          0          0          0      51381   rtl8762c_lib_flash.o
       792        202         46          0          0       6194   rtl876x_lib_cfg_int.o
        96         28        356          0          0       5269   rtl876x_lib_platform.o
         0          0         41          0          0      10764   xtx_flash_otp.o
         8          0          0          0          0         68   __main.o
       312          4         17          0          0         92   __printf_flags_wp.o
        14          0          0          0          0         68   __printf_wp.o
         0          0          0          0          0          0   __rtentry.o
        12          0          0          0          0          0   __rtentry2.o
         6          0          0          0          0          0   __rtentry4.o
        48          6          0          0          0         96   _printf_char_common.o
        88          4         40          0          0         88   _printf_hex_int.o
       178          0          0          0          0         88   _printf_intcommon.o
        78          0          0          0          0        108   _printf_pad.o
         0          0          0          0          0          0   _printf_percent.o
         4          0          0          0          0          0   _printf_percent_end.o
         6          0          0          0          0          0   _printf_x.o
        10          0          0          0          0         68   _sputc.o
         2          0          0          0          0          0   libinit.o
        10          0          0          0          0          0   libinit2.o
        38          0          0          0          0         68   llshl.o
        38          0          0          0          0         68   llushr.o
        40          6          0          0          0         84   noretval__2sprintf.o
       112         18          0          0        228        160   rand.o
       150          0          0          0          0         80   strncmp.o
        98          4          0          0          0        140   d2f.o
       826         16          0          0          0        492   daddsub_clz.o
        24          0          0          0          0        116   dcmpi.o
       688        140          0          0          0        256   ddiv.o
        90          4          0          0          0        140   dfixu.o
        84          0          0          0          0        232   dflt_clz.o
       120          4          0          0          0        140   dleqf.o
       340         12          0          0          0        152   dmul.o
       156          4          0          0          0        140   dnaninf.o
        12          0          0          0          0        116   dretinf.o
       108          0          0          0          0        128   drleqf.o
        86          4          0          0          0        132   f2d.o
       140          4          0          0          0        132   fnaninf.o
        10          0          0          0          0        116   fpinit.o
        10          0          0          0          0        116   fretinf.o
         0          0          0          0          0          0   usenofp.o
       256          8        403          0          0      61165   gap_config.o
       188         10        472          0          0       9086   gap_lib.o
      1352         84        724          0          0      15178   gap_lib_patch.o
       748         18          0          0          0       6012   gap_vendor_cmd.o
       280         28          0          0          0        156   ceil.o
      2044         24        767          0        196       6472   aes.o
       372          6          0         16          0       3469   aes_cmac.o
       826          0          0          0          0       4248   ccm.o
      7324        140        272          2         44      56198   configuration_server.o
        72          6        256          0          0       2122   crc8ets.o
      1008         52        153          0          8      11742   data_uart.o
      3514         12         96          0          0      14902   ecc.o
      6608        196       2692          0         12      19488   friendship_fn.o
      3928        106       1111          0         12      12458   friendship_lpn.o
      2984         96        994         33         96      62672   gap_scheduler.o
      1172         38        351          0         36      40332   heartbeat.o
       776         28        304          0          4      38841   mesh_access.o
      1484         60        440          0         16       7236   mesh_beacon.o
       908         30        267          0          4      35092   mesh_bearer.o
      1080        158        592          0         32      11907   mesh_common.o
      3744         96        479          0         24      10113   mesh_flash.o
      2072         48       1024          0         60       7547   mesh_network.o
      7340        196       2188          0        176      63113   mesh_node.o
      2640        120       1765          0         28      48190   mesh_provision.o
       544         24        222          0         12       3459   mesh_rpl.o
      3704        144       2954          0          0      13273   mesh_security.o
      1436         76        442          0         24       6890   mesh_service.o
      6168        178       2806          0        132      19039   mesh_transport.o
        24          4          0         16          0       1511   platform_diagnose.o
       114          0          0          0          0       2181   platform_list.o
       552         14         39          0          0      30638   platform_misc.o
       180         10         20          0          0       4084   platform_os.o
      3228        126       2175          0         76      14066   provision_adv.o
      2216         86        744          0          0       7758   provision_device.o
       380         36        502          0          2       5476   provision_server.o
       152         20         51          1          4       2380   provision_service.o
      2756        104       1082          0          8      12899   proxy_protocol.o
       388         36        547          0          2       3595   proxy_server.o
       172          6          0          1          0       2304   proxy_service.o
       488         22        153          0          8       3512   transport_ping.o

    ----------------------------------------------------------------------
     80468       2936      27644         72       1248     758096   Library Totals
        20          0         57          3          4          0   (incl. Padding)

    ----------------------------------------------------------------------

      Code (inc. data)   RO Data    RW Data    ZI Data      Debug   Library Name

      1280        260        443          0          0      73608   bee2_sdk.lib
      1154         38         57          0        228       1136   c_w.l
      2792        192          0          0          0       2548   fz_wm.l
      2544        120       1599          0          0      91441   gap_utils.lib
       280         28          0          0          0        156   m_wm.l
     72398       2298      25488         69       1016     589207   mesh_dev.lib

    ----------------------------------------------------------------------
     80468       2936      27644         72       1248     758096   Library Totals

    ----------------------------------------------------------------------

==============================================================================


      Code (inc. data)   RO Data    RW Data    ZI Data      Debug   

    117636       5736      46628        352       2972    1331766   Grand Totals
    117636       5736      46628        352       2972    1331766   ELF Image Totals
    117636       5736      46628        352          0          0   ROM Totals

==============================================================================

    Total RO  Size (Code + RO Data)               164264 ( 160.41kB)
    Total RW  Size (RW Data + ZI Data)              3324 (   3.25kB)
    Total ROM Size (Code + RO Data + RW Data)     164616 ( 160.76kB)

==============================================================================

